
bin/Release/atmega32Pulsonic.elf:     file format elf32-avr

Sections:
Idx Name          Size      VMA       LMA       File off  Algn
  0 .text         0000327a  00000000  00000000  000000d4  2**1
                  CONTENTS, ALLOC, LOAD, READONLY, CODE
  1 .data         00000054  00800060  0000327a  0000334e  2**0
                  CONTENTS, ALLOC, LOAD, DATA
  2 .bss          00000234  008000b4  008000b4  000033a2  2**0
                  ALLOC
  3 .eeprom       00000049  00810000  00810000  000033a2  2**0
                  CONTENTS, ALLOC, LOAD, DATA
  4 .fuse         00000002  00820000  00820000  000033eb  2**0
                  CONTENTS, ALLOC, LOAD, DATA
  5 .comment      00000012  00000000  00000000  000033ed  2**0
                  CONTENTS, READONLY
  6 .note.gnu.avr.deviceinfo 0000003c  00000000  00000000  00003400  2**2
                  CONTENTS, READONLY, OCTETS
  7 .debug_info   000004e6  00000000  00000000  0000343c  2**0
                  CONTENTS, READONLY, DEBUGGING, OCTETS
  8 .debug_abbrev 000004a3  00000000  00000000  00003922  2**0
                  CONTENTS, READONLY, DEBUGGING, OCTETS
  9 .debug_line   0000001d  00000000  00000000  00003dc5  2**0
                  CONTENTS, READONLY, DEBUGGING, OCTETS
 10 .debug_str    00000196  00000000  00000000  00003de2  2**0
                  CONTENTS, READONLY, DEBUGGING, OCTETS

Disassembly of section .text:

00000000 <__vectors>:
       0:	0c 94 2a 00 	jmp	0x54	; 0x54 <__ctors_end>
       4:	0c 94 47 00 	jmp	0x8e	; 0x8e <__bad_interrupt>
       8:	0c 94 47 00 	jmp	0x8e	; 0x8e <__bad_interrupt>
       c:	0c 94 47 00 	jmp	0x8e	; 0x8e <__bad_interrupt>
      10:	0c 94 47 00 	jmp	0x8e	; 0x8e <__bad_interrupt>
      14:	0c 94 47 00 	jmp	0x8e	; 0x8e <__bad_interrupt>
      18:	0c 94 47 00 	jmp	0x8e	; 0x8e <__bad_interrupt>
      1c:	0c 94 47 00 	jmp	0x8e	; 0x8e <__bad_interrupt>
      20:	0c 94 47 00 	jmp	0x8e	; 0x8e <__bad_interrupt>
      24:	0c 94 7d 0d 	jmp	0x1afa	; 0x1afa <__vector_9>
      28:	0c 94 47 00 	jmp	0x8e	; 0x8e <__bad_interrupt>
      2c:	0c 94 47 00 	jmp	0x8e	; 0x8e <__bad_interrupt>
      30:	0c 94 47 00 	jmp	0x8e	; 0x8e <__bad_interrupt>
      34:	0c 94 47 00 	jmp	0x8e	; 0x8e <__bad_interrupt>
      38:	0c 94 47 00 	jmp	0x8e	; 0x8e <__bad_interrupt>
      3c:	0c 94 47 00 	jmp	0x8e	; 0x8e <__bad_interrupt>
      40:	0c 94 47 00 	jmp	0x8e	; 0x8e <__bad_interrupt>
      44:	0c 94 47 00 	jmp	0x8e	; 0x8e <__bad_interrupt>
      48:	0c 94 47 00 	jmp	0x8e	; 0x8e <__bad_interrupt>
      4c:	0c 94 47 00 	jmp	0x8e	; 0x8e <__bad_interrupt>
      50:	0c 94 47 00 	jmp	0x8e	; 0x8e <__bad_interrupt>

00000054 <__ctors_end>:
      54:	11 24       	eor	r1, r1
      56:	1f be       	out	0x3f, r1	; 63
      58:	cf e5       	ldi	r28, 0x5F	; 95
      5a:	d8 e0       	ldi	r29, 0x08	; 8
      5c:	de bf       	out	0x3e, r29	; 62
      5e:	cd bf       	out	0x3d, r28	; 61

00000060 <__do_copy_data>:
      60:	10 e0       	ldi	r17, 0x00	; 0
      62:	a0 e6       	ldi	r26, 0x60	; 96
      64:	b0 e0       	ldi	r27, 0x00	; 0
      66:	ea e7       	ldi	r30, 0x7A	; 122
      68:	f2 e3       	ldi	r31, 0x32	; 50
      6a:	02 c0       	rjmp	.+4      	; 0x70 <__do_copy_data+0x10>
      6c:	05 90       	lpm	r0, Z+
      6e:	0d 92       	st	X+, r0
      70:	a4 3b       	cpi	r26, 0xB4	; 180
      72:	b1 07       	cpc	r27, r17
      74:	d9 f7       	brne	.-10     	; 0x6c <__do_copy_data+0xc>

00000076 <__do_clear_bss>:
      76:	22 e0       	ldi	r18, 0x02	; 2
      78:	a4 eb       	ldi	r26, 0xB4	; 180
      7a:	b0 e0       	ldi	r27, 0x00	; 0
      7c:	01 c0       	rjmp	.+2      	; 0x80 <.do_clear_bss_start>

0000007e <.do_clear_bss_loop>:
      7e:	1d 92       	st	X+, r1

00000080 <.do_clear_bss_start>:
      80:	a8 3e       	cpi	r26, 0xE8	; 232
      82:	b2 07       	cpc	r27, r18
      84:	e1 f7       	brne	.-8      	; 0x7e <.do_clear_bss_loop>
      86:	0e 94 00 14 	call	0x2800	; 0x2800 <main>
      8a:	0c 94 3b 19 	jmp	0x3276	; 0x3276 <_exit>

0000008e <__bad_interrupt>:
      8e:	0c 94 00 00 	jmp	0	; 0x0 <__vectors>

00000092 <autoMode_setup>:
      92:	8f 92       	push	r8
      94:	9f 92       	push	r9
      96:	af 92       	push	r10
      98:	bf 92       	push	r11
      9a:	ff 92       	push	r15
      9c:	0f 93       	push	r16
      9e:	1f 93       	push	r17
      a0:	cf 93       	push	r28
      a2:	df 93       	push	r29
      a4:	00 d0       	rcall	.+0      	; 0xa6 <autoMode_setup+0x14>
      a6:	00 d0       	rcall	.+0      	; 0xa8 <autoMode_setup+0x16>
      a8:	00 d0       	rcall	.+0      	; 0xaa <autoMode_setup+0x18>
      aa:	cd b7       	in	r28, 0x3d	; 61
      ac:	de b7       	in	r29, 0x3e	; 62
      ae:	20 91 60 00 	lds	r18, 0x0060	; 0x800060 <nTicks_measured>
      b2:	30 91 61 00 	lds	r19, 0x0061	; 0x800061 <nTicks_measured+0x1>
      b6:	40 91 62 00 	lds	r20, 0x0062	; 0x800062 <nTicks_measured+0x2>
      ba:	50 91 63 00 	lds	r21, 0x0063	; 0x800063 <nTicks_measured+0x3>
      be:	60 91 64 00 	lds	r22, 0x0064	; 0x800064 <Qmhl_measured>
      c2:	70 91 65 00 	lds	r23, 0x0065	; 0x800065 <Qmhl_measured+0x1>
      c6:	80 91 66 00 	lds	r24, 0x0066	; 0x800066 <Qmhl_measured+0x2>
      ca:	90 91 67 00 	lds	r25, 0x0067	; 0x800067 <Qmhl_measured+0x3>
      ce:	0e 94 f8 16 	call	0x2df0	; 0x2df0 <__divsf3>
      d2:	46 2f       	mov	r20, r22
      d4:	57 2f       	mov	r21, r23
      d6:	bc 01       	movw	r22, r24
      d8:	40 93 4e 01 	sts	0x014E, r20	; 0x80014e <pulsonic+0x1>
      dc:	50 93 4f 01 	sts	0x014F, r21	; 0x80014f <pulsonic+0x2>
      e0:	60 93 50 01 	sts	0x0150, r22	; 0x800150 <pulsonic+0x3>
      e4:	70 93 51 01 	sts	0x0151, r23	; 0x800151 <pulsonic+0x4>
      e8:	80 e0       	ldi	r24, 0x00	; 0
      ea:	90 e0       	ldi	r25, 0x00	; 0
      ec:	a0 e7       	ldi	r26, 0x70	; 112
      ee:	b2 e4       	ldi	r27, 0x42	; 66
      f0:	80 93 52 01 	sts	0x0152, r24	; 0x800152 <pulsonic+0x5>
      f4:	90 93 53 01 	sts	0x0153, r25	; 0x800153 <pulsonic+0x6>
      f8:	a0 93 54 01 	sts	0x0154, r26	; 0x800154 <pulsonic+0x7>
      fc:	b0 93 55 01 	sts	0x0155, r27	; 0x800155 <pulsonic+0x8>
     100:	80 e0       	ldi	r24, 0x00	; 0
     102:	90 e0       	ldi	r25, 0x00	; 0
     104:	a0 e8       	ldi	r26, 0x80	; 128
     106:	bf e3       	ldi	r27, 0x3F	; 63
     108:	80 93 56 01 	sts	0x0156, r24	; 0x800156 <pulsonic+0x9>
     10c:	90 93 57 01 	sts	0x0157, r25	; 0x800157 <pulsonic+0xa>
     110:	a0 93 58 01 	sts	0x0158, r26	; 0x800158 <pulsonic+0xb>
     114:	b0 93 59 01 	sts	0x0159, r27	; 0x800159 <pulsonic+0xc>
     118:	80 91 52 01 	lds	r24, 0x0152	; 0x800152 <pulsonic+0x5>
     11c:	90 91 53 01 	lds	r25, 0x0153	; 0x800153 <pulsonic+0x6>
     120:	a0 91 54 01 	lds	r26, 0x0154	; 0x800154 <pulsonic+0x7>
     124:	b0 91 55 01 	lds	r27, 0x0155	; 0x800155 <pulsonic+0x8>
     128:	89 83       	std	Y+1, r24	; 0x01
     12a:	9a 83       	std	Y+2, r25	; 0x02
     12c:	ab 83       	std	Y+3, r26	; 0x03
     12e:	bc 83       	std	Y+4, r27	; 0x04
     130:	20 91 56 01 	lds	r18, 0x0156	; 0x800156 <pulsonic+0x9>
     134:	30 91 57 01 	lds	r19, 0x0157	; 0x800157 <pulsonic+0xa>
     138:	40 91 58 01 	lds	r20, 0x0158	; 0x800158 <pulsonic+0xb>
     13c:	50 91 59 01 	lds	r21, 0x0159	; 0x800159 <pulsonic+0xc>
     140:	bc 01       	movw	r22, r24
     142:	cd 01       	movw	r24, r26
     144:	0e 94 f8 16 	call	0x2df0	; 0x2df0 <__divsf3>
     148:	46 2f       	mov	r20, r22
     14a:	57 2f       	mov	r21, r23
     14c:	bc 01       	movw	r22, r24
     14e:	40 93 5e 01 	sts	0x015E, r20	; 0x80015e <pulsonic+0x11>
     152:	50 93 5f 01 	sts	0x015F, r21	; 0x80015f <pulsonic+0x12>
     156:	60 93 60 01 	sts	0x0160, r22	; 0x800160 <pulsonic+0x13>
     15a:	70 93 61 01 	sts	0x0161, r23	; 0x800161 <pulsonic+0x14>
     15e:	80 91 56 01 	lds	r24, 0x0156	; 0x800156 <pulsonic+0x9>
     162:	90 91 57 01 	lds	r25, 0x0157	; 0x800157 <pulsonic+0xa>
     166:	a0 91 58 01 	lds	r26, 0x0158	; 0x800158 <pulsonic+0xb>
     16a:	b0 91 59 01 	lds	r27, 0x0159	; 0x800159 <pulsonic+0xc>
     16e:	89 83       	std	Y+1, r24	; 0x01
     170:	9a 83       	std	Y+2, r25	; 0x02
     172:	ab 83       	std	Y+3, r26	; 0x03
     174:	bc 83       	std	Y+4, r27	; 0x04
     176:	20 e0       	ldi	r18, 0x00	; 0
     178:	30 e0       	ldi	r19, 0x00	; 0
     17a:	40 e7       	ldi	r20, 0x70	; 112
     17c:	52 e4       	ldi	r21, 0x42	; 66
     17e:	bc 01       	movw	r22, r24
     180:	cd 01       	movw	r24, r26
     182:	0e 94 57 18 	call	0x30ae	; 0x30ae <__mulsf3>
     186:	20 e0       	ldi	r18, 0x00	; 0
     188:	30 e0       	ldi	r19, 0x00	; 0
     18a:	4a e7       	ldi	r20, 0x7A	; 122
     18c:	54 e4       	ldi	r21, 0x44	; 68
     18e:	69 83       	std	Y+1, r22	; 0x01
     190:	7a 83       	std	Y+2, r23	; 0x02
     192:	8b 83       	std	Y+3, r24	; 0x03
     194:	9c 83       	std	Y+4, r25	; 0x04
     196:	69 81       	ldd	r22, Y+1	; 0x01
     198:	7a 81       	ldd	r23, Y+2	; 0x02
     19a:	8b 81       	ldd	r24, Y+3	; 0x03
     19c:	9c 81       	ldd	r25, Y+4	; 0x04
     19e:	0e 94 57 18 	call	0x30ae	; 0x30ae <__mulsf3>
     1a2:	69 83       	std	Y+1, r22	; 0x01
     1a4:	7a 83       	std	Y+2, r23	; 0x02
     1a6:	8b 83       	std	Y+3, r24	; 0x03
     1a8:	9c 83       	std	Y+4, r25	; 0x04
     1aa:	69 81       	ldd	r22, Y+1	; 0x01
     1ac:	7a 81       	ldd	r23, Y+2	; 0x02
     1ae:	8b 81       	ldd	r24, Y+3	; 0x03
     1b0:	9c 81       	ldd	r25, Y+4	; 0x04
     1b2:	0e 94 71 17 	call	0x2ee2	; 0x2ee2 <__fixunssfsi>
     1b6:	46 2f       	mov	r20, r22
     1b8:	57 2f       	mov	r21, r23
     1ba:	bc 01       	movw	r22, r24
     1bc:	40 93 5a 01 	sts	0x015A, r20	; 0x80015a <pulsonic+0xd>
     1c0:	50 93 5b 01 	sts	0x015B, r21	; 0x80015b <pulsonic+0xe>
     1c4:	60 93 5c 01 	sts	0x015C, r22	; 0x80015c <pulsonic+0xf>
     1c8:	70 93 5d 01 	sts	0x015D, r23	; 0x80015d <pulsonic+0x10>
     1cc:	10 e0       	ldi	r17, 0x00	; 0
     1ce:	00 e0       	ldi	r16, 0x00	; 0
     1d0:	84 e1       	ldi	r24, 0x14	; 20
     1d2:	f8 2e       	mov	r15, r24
     1d4:	c8 01       	movw	r24, r16
     1d6:	0e 94 39 11 	call	0x2272	; 0x2272 <nozzle_isEnabled>
     1da:	88 23       	and	r24, r24
     1dc:	09 f4       	brne	.+2      	; 0x1e0 <autoMode_setup+0x14e>
     1de:	83 c0       	rjmp	.+262    	; 0x2e6 <autoMode_setup+0x254>
     1e0:	f0 9e       	mul	r15, r16
     1e2:	d0 01       	movw	r26, r0
     1e4:	f1 9e       	mul	r15, r17
     1e6:	b0 0d       	add	r27, r0
     1e8:	11 24       	eor	r1, r1
     1ea:	a3 5b       	subi	r26, 0xB3	; 179
     1ec:	be 4f       	sbci	r27, 0xFE	; 254
     1ee:	be 83       	std	Y+6, r27	; 0x06
     1f0:	ad 83       	std	Y+5, r26	; 0x05
     1f2:	55 96       	adiw	r26, 0x15	; 21
     1f4:	8d 91       	ld	r24, X+
     1f6:	9d 91       	ld	r25, X+
     1f8:	0d 90       	ld	r0, X+
     1fa:	bc 91       	ld	r27, X
     1fc:	a0 2d       	mov	r26, r0
     1fe:	89 83       	std	Y+1, r24	; 0x01
     200:	9a 83       	std	Y+2, r25	; 0x02
     202:	ab 83       	std	Y+3, r26	; 0x03
     204:	bc 83       	std	Y+4, r27	; 0x04
     206:	20 91 4e 01 	lds	r18, 0x014E	; 0x80014e <pulsonic+0x1>
     20a:	30 91 4f 01 	lds	r19, 0x014F	; 0x80014f <pulsonic+0x2>
     20e:	40 91 50 01 	lds	r20, 0x0150	; 0x800150 <pulsonic+0x3>
     212:	50 91 51 01 	lds	r21, 0x0151	; 0x800151 <pulsonic+0x4>
     216:	80 90 5e 01 	lds	r8, 0x015E	; 0x80015e <pulsonic+0x11>
     21a:	90 90 5f 01 	lds	r9, 0x015F	; 0x80015f <pulsonic+0x12>
     21e:	a0 90 60 01 	lds	r10, 0x0160	; 0x800160 <pulsonic+0x13>
     222:	b0 90 61 01 	lds	r11, 0x0161	; 0x800161 <pulsonic+0x14>
     226:	bc 01       	movw	r22, r24
     228:	cd 01       	movw	r24, r26
     22a:	0e 94 f8 16 	call	0x2df0	; 0x2df0 <__divsf3>
     22e:	a5 01       	movw	r20, r10
     230:	94 01       	movw	r18, r8
     232:	69 83       	std	Y+1, r22	; 0x01
     234:	7a 83       	std	Y+2, r23	; 0x02
     236:	8b 83       	std	Y+3, r24	; 0x03
     238:	9c 83       	std	Y+4, r25	; 0x04
     23a:	69 81       	ldd	r22, Y+1	; 0x01
     23c:	7a 81       	ldd	r23, Y+2	; 0x02
     23e:	8b 81       	ldd	r24, Y+3	; 0x03
     240:	9c 81       	ldd	r25, Y+4	; 0x04
     242:	0e 94 f8 16 	call	0x2df0	; 0x2df0 <__divsf3>
     246:	46 2f       	mov	r20, r22
     248:	57 2f       	mov	r21, r23
     24a:	bc 01       	movw	r22, r24
     24c:	ed 81       	ldd	r30, Y+5	; 0x05
     24e:	fe 81       	ldd	r31, Y+6	; 0x06
     250:	41 8f       	std	Z+25, r20	; 0x19
     252:	52 8f       	std	Z+26, r21	; 0x1a
     254:	63 8f       	std	Z+27, r22	; 0x1b
     256:	74 8f       	std	Z+28, r23	; 0x1c
     258:	81 8d       	ldd	r24, Z+25	; 0x19
     25a:	92 8d       	ldd	r25, Z+26	; 0x1a
     25c:	a3 8d       	ldd	r26, Z+27	; 0x1b
     25e:	b4 8d       	ldd	r27, Z+28	; 0x1c
     260:	89 83       	std	Y+1, r24	; 0x01
     262:	9a 83       	std	Y+2, r25	; 0x02
     264:	ab 83       	std	Y+3, r26	; 0x03
     266:	bc 83       	std	Y+4, r27	; 0x04
     268:	20 e0       	ldi	r18, 0x00	; 0
     26a:	30 e0       	ldi	r19, 0x00	; 0
     26c:	40 e8       	ldi	r20, 0x80	; 128
     26e:	5f e3       	ldi	r21, 0x3F	; 63
     270:	bc 01       	movw	r22, r24
     272:	cd 01       	movw	r24, r26
     274:	0e 94 52 18 	call	0x30a4	; 0x30a4 <__gesf2>
     278:	87 fd       	sbrc	r24, 7
     27a:	2a c0       	rjmp	.+84     	; 0x2d0 <autoMode_setup+0x23e>
     27c:	ad 81       	ldd	r26, Y+5	; 0x05
     27e:	be 81       	ldd	r27, Y+6	; 0x06
     280:	59 96       	adiw	r26, 0x19	; 25
     282:	8d 91       	ld	r24, X+
     284:	9d 91       	ld	r25, X+
     286:	0d 90       	ld	r0, X+
     288:	bc 91       	ld	r27, X
     28a:	a0 2d       	mov	r26, r0
     28c:	89 83       	std	Y+1, r24	; 0x01
     28e:	9a 83       	std	Y+2, r25	; 0x02
     290:	ab 83       	std	Y+3, r26	; 0x03
     292:	bc 83       	std	Y+4, r27	; 0x04
     294:	bc 01       	movw	r22, r24
     296:	cd 01       	movw	r24, r26
     298:	0e 94 71 17 	call	0x2ee2	; 0x2ee2 <__fixunssfsi>
     29c:	69 83       	std	Y+1, r22	; 0x01
     29e:	7a 83       	std	Y+2, r23	; 0x02
     2a0:	8b 83       	std	Y+3, r24	; 0x03
     2a2:	9c 83       	std	Y+4, r25	; 0x04
     2a4:	a9 81       	ldd	r26, Y+1	; 0x01
     2a6:	ba 81       	ldd	r27, Y+2	; 0x02
     2a8:	cd 01       	movw	r24, r26
     2aa:	b0 e0       	ldi	r27, 0x00	; 0
     2ac:	a0 e0       	ldi	r26, 0x00	; 0
     2ae:	89 83       	std	Y+1, r24	; 0x01
     2b0:	9a 83       	std	Y+2, r25	; 0x02
     2b2:	ab 83       	std	Y+3, r26	; 0x03
     2b4:	bc 83       	std	Y+4, r27	; 0x04
     2b6:	bc 01       	movw	r22, r24
     2b8:	cd 01       	movw	r24, r26
     2ba:	0e 94 a0 17 	call	0x2f40	; 0x2f40 <__floatunsisf>
     2be:	46 2f       	mov	r20, r22
     2c0:	57 2f       	mov	r21, r23
     2c2:	bc 01       	movw	r22, r24
     2c4:	ed 81       	ldd	r30, Y+5	; 0x05
     2c6:	fe 81       	ldd	r31, Y+6	; 0x06
     2c8:	45 8f       	std	Z+29, r20	; 0x1d
     2ca:	56 8f       	std	Z+30, r21	; 0x1e
     2cc:	67 8f       	std	Z+31, r22	; 0x1f
     2ce:	70 a3       	std	Z+32, r23	; 0x20
     2d0:	f0 9e       	mul	r15, r16
     2d2:	f0 01       	movw	r30, r0
     2d4:	f1 9e       	mul	r15, r17
     2d6:	f0 0d       	add	r31, r0
     2d8:	11 24       	eor	r1, r1
     2da:	e3 5b       	subi	r30, 0xB3	; 179
     2dc:	fe 4f       	sbci	r31, 0xFE	; 254
     2de:	11 a2       	std	Z+33, r1	; 0x21
     2e0:	12 a2       	std	Z+34, r1	; 0x22
     2e2:	13 a2       	std	Z+35, r1	; 0x23
     2e4:	14 a2       	std	Z+36, r1	; 0x24
     2e6:	0f 5f       	subi	r16, 0xFF	; 255
     2e8:	1f 4f       	sbci	r17, 0xFF	; 255
     2ea:	02 31       	cpi	r16, 0x12	; 18
     2ec:	11 05       	cpc	r17, r1
     2ee:	09 f0       	breq	.+2      	; 0x2f2 <autoMode_setup+0x260>
     2f0:	71 cf       	rjmp	.-286    	; 0x1d4 <autoMode_setup+0x142>
     2f2:	10 92 da 02 	sts	0x02DA, r1	; 0x8002da <pulsonic+0x18d>
     2f6:	10 92 d9 02 	sts	0x02D9, r1	; 0x8002d9 <pulsonic+0x18c>
     2fa:	26 96       	adiw	r28, 0x06	; 6
     2fc:	0f b6       	in	r0, 0x3f	; 63
     2fe:	f8 94       	cli
     300:	de bf       	out	0x3e, r29	; 62
     302:	0f be       	out	0x3f, r0	; 63
     304:	cd bf       	out	0x3d, r28	; 61
     306:	df 91       	pop	r29
     308:	cf 91       	pop	r28
     30a:	1f 91       	pop	r17
     30c:	0f 91       	pop	r16
     30e:	ff 90       	pop	r15
     310:	bf 90       	pop	r11
     312:	af 90       	pop	r10
     314:	9f 90       	pop	r9
     316:	8f 90       	pop	r8
     318:	08 95       	ret

0000031a <autoMode_disp7s_writeSumTotal>:
     31a:	cf 93       	push	r28
     31c:	df 93       	push	r29
     31e:	00 d0       	rcall	.+0      	; 0x320 <autoMode_disp7s_writeSumTotal+0x6>
     320:	00 d0       	rcall	.+0      	; 0x322 <autoMode_disp7s_writeSumTotal+0x8>
     322:	cd b7       	in	r28, 0x3d	; 61
     324:	de b7       	in	r29, 0x3e	; 62
     326:	80 91 2f 01 	lds	r24, 0x012F	; 0x80012f <disp_owner>
     32a:	81 11       	cpse	r24, r1
     32c:	16 c0       	rjmp	.+44     	; 0x35a <autoMode_disp7s_writeSumTotal+0x40>
     32e:	84 e1       	ldi	r24, 0x14	; 20
     330:	90 e0       	ldi	r25, 0x00	; 0
     332:	0e 94 7b 08 	call	0x10f6	; 0x10f6 <disp7s_modeDisp_writeInt>
     336:	0e 94 c5 11 	call	0x238a	; 0x238a <pulsonic_getTotalSum_mlh>
     33a:	69 83       	std	Y+1, r22	; 0x01
     33c:	7a 83       	std	Y+2, r23	; 0x02
     33e:	8b 83       	std	Y+3, r24	; 0x03
     340:	9c 83       	std	Y+4, r25	; 0x04
     342:	69 81       	ldd	r22, Y+1	; 0x01
     344:	7a 81       	ldd	r23, Y+2	; 0x02
     346:	8b 81       	ldd	r24, Y+3	; 0x03
     348:	9c 81       	ldd	r25, Y+4	; 0x04
     34a:	0f 90       	pop	r0
     34c:	0f 90       	pop	r0
     34e:	0f 90       	pop	r0
     350:	0f 90       	pop	r0
     352:	df 91       	pop	r29
     354:	cf 91       	pop	r28
     356:	0c 94 00 08 	jmp	0x1000	; 0x1000 <disp7s_qtyDisp_writeFloat>
     35a:	0f 90       	pop	r0
     35c:	0f 90       	pop	r0
     35e:	0f 90       	pop	r0
     360:	0f 90       	pop	r0
     362:	df 91       	pop	r29
     364:	cf 91       	pop	r28
     366:	08 95       	ret

00000368 <autoMode_cmd>:
     368:	81 11       	cpse	r24, r1
     36a:	0b c0       	rjmp	.+22     	; 0x382 <autoMode_cmd+0x1a>
     36c:	0e 94 a3 10 	call	0x2146	; 0x2146 <mpap_homming_job_reset>
     370:	81 e0       	ldi	r24, 0x01	; 1
     372:	80 93 b8 00 	sts	0x00B8, r24	; 0x8000b8 <autoMode>
     376:	0e 94 49 00 	call	0x92	; 0x92 <autoMode_setup>
     37a:	0e 94 2d 13 	call	0x265a	; 0x265a <pump_stop>
     37e:	0c 94 2e 0f 	jmp	0x1e5c	; 0x1e5c <mpap_stall>
     382:	81 30       	cpi	r24, 0x01	; 1
     384:	d1 f7       	brne	.-12     	; 0x37a <autoMode_cmd+0x12>
     386:	10 92 b8 00 	sts	0x00B8, r1	; 0x8000b8 <autoMode>
     38a:	f7 cf       	rjmp	.-18     	; 0x37a <autoMode_cmd+0x12>

0000038c <autoMode1_job>:
     38c:	0f 93       	push	r16
     38e:	1f 93       	push	r17
     390:	cf 93       	push	r28
     392:	df 93       	push	r29
     394:	cd b7       	in	r28, 0x3d	; 61
     396:	de b7       	in	r29, 0x3e	; 62
     398:	2a 97       	sbiw	r28, 0x0a	; 10
     39a:	0f b6       	in	r0, 0x3f	; 63
     39c:	f8 94       	cli
     39e:	de bf       	out	0x3e, r29	; 62
     3a0:	0f be       	out	0x3f, r0	; 63
     3a2:	cd bf       	out	0x3d, r28	; 61
     3a4:	80 91 b8 00 	lds	r24, 0x00B8	; 0x8000b8 <autoMode>
     3a8:	18 16       	cp	r1, r24
     3aa:	cc f4       	brge	.+50     	; 0x3de <autoMode1_job+0x52>
     3ac:	81 30       	cpi	r24, 0x01	; 1
     3ae:	31 f5       	brne	.+76     	; 0x3fc <autoMode1_job+0x70>
     3b0:	0e 94 9d 10 	call	0x213a	; 0x213a <mpap_isIdle>
     3b4:	88 23       	and	r24, r24
     3b6:	99 f0       	breq	.+38     	; 0x3de <autoMode1_job+0x52>
     3b8:	10 92 b9 00 	sts	0x00B9, r1	; 0x8000b9 <numNozzle>
     3bc:	80 91 3e 01 	lds	r24, 0x013E	; 0x80013e <mpap>
     3c0:	90 91 3f 01 	lds	r25, 0x013F	; 0x80013f <mpap+0x1>
     3c4:	89 2b       	or	r24, r25
     3c6:	b1 f4       	brne	.+44     	; 0x3f4 <autoMode1_job+0x68>
     3c8:	83 e0       	ldi	r24, 0x03	; 3
     3ca:	80 93 b8 00 	sts	0x00B8, r24	; 0x8000b8 <autoMode>
     3ce:	10 92 b4 00 	sts	0x00B4, r1	; 0x8000b4 <timeEllapsed.0>
     3d2:	10 92 b5 00 	sts	0x00B5, r1	; 0x8000b5 <timeEllapsed.0+0x1>
     3d6:	10 92 b6 00 	sts	0x00B6, r1	; 0x8000b6 <timeEllapsed.0+0x2>
     3da:	10 92 b7 00 	sts	0x00B7, r1	; 0x8000b7 <timeEllapsed.0+0x3>
     3de:	2a 96       	adiw	r28, 0x0a	; 10
     3e0:	0f b6       	in	r0, 0x3f	; 63
     3e2:	f8 94       	cli
     3e4:	de bf       	out	0x3e, r29	; 62
     3e6:	0f be       	out	0x3f, r0	; 63
     3e8:	cd bf       	out	0x3d, r28	; 61
     3ea:	df 91       	pop	r29
     3ec:	cf 91       	pop	r28
     3ee:	1f 91       	pop	r17
     3f0:	0f 91       	pop	r16
     3f2:	08 95       	ret
     3f4:	80 91 b8 00 	lds	r24, 0x00B8	; 0x8000b8 <autoMode>
     3f8:	8f 5f       	subi	r24, 0xFF	; 255
     3fa:	e7 cf       	rjmp	.-50     	; 0x3ca <autoMode1_job+0x3e>
     3fc:	82 30       	cpi	r24, 0x02	; 2
     3fe:	41 f4       	brne	.+16     	; 0x410 <__FUSE_REGION_LENGTH__+0x10>
     400:	0e 94 a6 10 	call	0x214c	; 0x214c <mpap_homming_job>
     404:	88 23       	and	r24, r24
     406:	59 f3       	breq	.-42     	; 0x3de <autoMode1_job+0x52>
     408:	80 91 b8 00 	lds	r24, 0x00B8	; 0x8000b8 <autoMode>
     40c:	8f 5f       	subi	r24, 0xFF	; 255
     40e:	33 c0       	rjmp	.+102    	; 0x476 <__FUSE_REGION_LENGTH__+0x76>
     410:	90 91 31 01 	lds	r25, 0x0131	; 0x800131 <smain>
     414:	90 ff       	sbrs	r25, 0
     416:	14 c0       	rjmp	.+40     	; 0x440 <__FUSE_REGION_LENGTH__+0x40>
     418:	40 91 b4 00 	lds	r20, 0x00B4	; 0x8000b4 <timeEllapsed.0>
     41c:	50 91 b5 00 	lds	r21, 0x00B5	; 0x8000b5 <timeEllapsed.0+0x1>
     420:	60 91 b6 00 	lds	r22, 0x00B6	; 0x8000b6 <timeEllapsed.0+0x2>
     424:	70 91 b7 00 	lds	r23, 0x00B7	; 0x8000b7 <timeEllapsed.0+0x3>
     428:	4f 5f       	subi	r20, 0xFF	; 255
     42a:	5f 4f       	sbci	r21, 0xFF	; 255
     42c:	6f 4f       	sbci	r22, 0xFF	; 255
     42e:	7f 4f       	sbci	r23, 0xFF	; 255
     430:	40 93 b4 00 	sts	0x00B4, r20	; 0x8000b4 <timeEllapsed.0>
     434:	50 93 b5 00 	sts	0x00B5, r21	; 0x8000b5 <timeEllapsed.0+0x1>
     438:	60 93 b6 00 	sts	0x00B6, r22	; 0x8000b6 <timeEllapsed.0+0x2>
     43c:	70 93 b7 00 	sts	0x00B7, r23	; 0x8000b7 <timeEllapsed.0+0x3>
     440:	83 30       	cpi	r24, 0x03	; 3
     442:	59 f5       	brne	.+86     	; 0x49a <__FUSE_REGION_LENGTH__+0x9a>
     444:	80 91 b9 00 	lds	r24, 0x00B9	; 0x8000b9 <numNozzle>
     448:	82 31       	cpi	r24, 0x12	; 18
     44a:	3c f4       	brge	.+14     	; 0x45a <__FUSE_REGION_LENGTH__+0x5a>
     44c:	08 2e       	mov	r0, r24
     44e:	00 0c       	add	r0, r0
     450:	99 0b       	sbc	r25, r25
     452:	0e 94 39 11 	call	0x2272	; 0x2272 <nozzle_isEnabled>
     456:	88 23       	and	r24, r24
     458:	89 f0       	breq	.+34     	; 0x47c <__FUSE_REGION_LENGTH__+0x7c>
     45a:	80 91 b9 00 	lds	r24, 0x00B9	; 0x8000b9 <numNozzle>
     45e:	82 31       	cpi	r24, 0x12	; 18
     460:	c1 f4       	brne	.+48     	; 0x492 <__FUSE_REGION_LENGTH__+0x92>
     462:	0e 94 6a 11 	call	0x22d4	; 0x22d4 <nozzle_getPosition>
     466:	81 31       	cpi	r24, 0x11	; 17
     468:	79 f4       	brne	.+30     	; 0x488 <__FUSE_REGION_LENGTH__+0x88>
     46a:	63 e0       	ldi	r22, 0x03	; 3
     46c:	88 ec       	ldi	r24, 0xC8	; 200
     46e:	90 e0       	ldi	r25, 0x00	; 0
     470:	0e 94 32 0f 	call	0x1e64	; 0x1e64 <mpap_doMovement>
     474:	87 e0       	ldi	r24, 0x07	; 7
     476:	80 93 b8 00 	sts	0x00B8, r24	; 0x8000b8 <autoMode>
     47a:	b1 cf       	rjmp	.-158    	; 0x3de <autoMode1_job+0x52>
     47c:	80 91 b9 00 	lds	r24, 0x00B9	; 0x8000b9 <numNozzle>
     480:	8f 5f       	subi	r24, 0xFF	; 255
     482:	80 93 b9 00 	sts	0x00B9, r24	; 0x8000b9 <numNozzle>
     486:	de cf       	rjmp	.-68     	; 0x444 <__FUSE_REGION_LENGTH__+0x44>
     488:	81 e1       	ldi	r24, 0x11	; 17
     48a:	0e 94 8f 10 	call	0x211e	; 0x211e <mpap_movetoNozzle>
     48e:	86 e0       	ldi	r24, 0x06	; 6
     490:	f2 cf       	rjmp	.-28     	; 0x476 <__FUSE_REGION_LENGTH__+0x76>
     492:	0e 94 8f 10 	call	0x211e	; 0x211e <mpap_movetoNozzle>
     496:	84 e0       	ldi	r24, 0x04	; 4
     498:	ee cf       	rjmp	.-36     	; 0x476 <__FUSE_REGION_LENGTH__+0x76>
     49a:	84 30       	cpi	r24, 0x04	; 4
     49c:	09 f0       	breq	.+2      	; 0x4a0 <__FUSE_REGION_LENGTH__+0xa0>
     49e:	03 c1       	rjmp	.+518    	; 0x6a6 <__FUSE_REGION_LENGTH__+0x2a6>
     4a0:	0e 94 9d 10 	call	0x213a	; 0x213a <mpap_isIdle>
     4a4:	88 23       	and	r24, r24
     4a6:	09 f4       	brne	.+2      	; 0x4aa <__FUSE_REGION_LENGTH__+0xaa>
     4a8:	9a cf       	rjmp	.-204    	; 0x3de <autoMode1_job+0x52>
     4aa:	20 91 b9 00 	lds	r18, 0x00B9	; 0x8000b9 <numNozzle>
     4ae:	29 83       	std	Y+1, r18	; 0x01
     4b0:	02 2f       	mov	r16, r18
     4b2:	02 2e       	mov	r0, r18
     4b4:	00 0c       	add	r0, r0
     4b6:	11 0b       	sbc	r17, r17
     4b8:	a4 e1       	ldi	r26, 0x14	; 20
     4ba:	2a 02       	muls	r18, r26
     4bc:	c0 01       	movw	r24, r0
     4be:	11 24       	eor	r1, r1
     4c0:	83 5b       	subi	r24, 0xB3	; 179
     4c2:	9e 4f       	sbci	r25, 0xFE	; 254
     4c4:	9e 83       	std	Y+6, r25	; 0x06
     4c6:	8d 83       	std	Y+5, r24	; 0x05
     4c8:	fc 01       	movw	r30, r24
     4ca:	10 a6       	std	Z+40, r1	; 0x28
     4cc:	17 a2       	std	Z+39, r1	; 0x27
     4ce:	21 8d       	ldd	r18, Z+25	; 0x19
     4d0:	32 8d       	ldd	r19, Z+26	; 0x1a
     4d2:	43 8d       	ldd	r20, Z+27	; 0x1b
     4d4:	54 8d       	ldd	r21, Z+28	; 0x1c
     4d6:	81 a1       	ldd	r24, Z+33	; 0x21
     4d8:	92 a1       	ldd	r25, Z+34	; 0x22
     4da:	a3 a1       	ldd	r26, Z+35	; 0x23
     4dc:	b4 a1       	ldd	r27, Z+36	; 0x24
     4de:	89 83       	std	Y+1, r24	; 0x01
     4e0:	9a 83       	std	Y+2, r25	; 0x02
     4e2:	ab 83       	std	Y+3, r26	; 0x03
     4e4:	bc 83       	std	Y+4, r27	; 0x04
     4e6:	bc 01       	movw	r22, r24
     4e8:	cd 01       	movw	r24, r26
     4ea:	0e 94 87 16 	call	0x2d0e	; 0x2d0e <__addsf3>
     4ee:	46 2f       	mov	r20, r22
     4f0:	57 2f       	mov	r21, r23
     4f2:	bc 01       	movw	r22, r24
     4f4:	ed 81       	ldd	r30, Y+5	; 0x05
     4f6:	fe 81       	ldd	r31, Y+6	; 0x06
     4f8:	41 a3       	std	Z+33, r20	; 0x21
     4fa:	52 a3       	std	Z+34, r21	; 0x22
     4fc:	63 a3       	std	Z+35, r22	; 0x23
     4fe:	74 a3       	std	Z+36, r23	; 0x24
     500:	81 a1       	ldd	r24, Z+33	; 0x21
     502:	92 a1       	ldd	r25, Z+34	; 0x22
     504:	a3 a1       	ldd	r26, Z+35	; 0x23
     506:	b4 a1       	ldd	r27, Z+36	; 0x24
     508:	89 83       	std	Y+1, r24	; 0x01
     50a:	9a 83       	std	Y+2, r25	; 0x02
     50c:	ab 83       	std	Y+3, r26	; 0x03
     50e:	bc 83       	std	Y+4, r27	; 0x04
     510:	25 8d       	ldd	r18, Z+29	; 0x1d
     512:	36 8d       	ldd	r19, Z+30	; 0x1e
     514:	47 8d       	ldd	r20, Z+31	; 0x1f
     516:	50 a1       	ldd	r21, Z+32	; 0x20
     518:	bc 01       	movw	r22, r24
     51a:	cd 01       	movw	r24, r26
     51c:	0e 94 52 18 	call	0x30a4	; 0x30a4 <__gesf2>
     520:	87 fd       	sbrc	r24, 7
     522:	bc c0       	rjmp	.+376    	; 0x69c <__FUSE_REGION_LENGTH__+0x29c>
     524:	ad 81       	ldd	r26, Y+5	; 0x05
     526:	be 81       	ldd	r27, Y+6	; 0x06
     528:	91 96       	adiw	r26, 0x21	; 33
     52a:	8d 91       	ld	r24, X+
     52c:	9d 91       	ld	r25, X+
     52e:	0d 90       	ld	r0, X+
     530:	bc 91       	ld	r27, X
     532:	a0 2d       	mov	r26, r0
     534:	89 83       	std	Y+1, r24	; 0x01
     536:	9a 83       	std	Y+2, r25	; 0x02
     538:	ab 83       	std	Y+3, r26	; 0x03
     53a:	bc 83       	std	Y+4, r27	; 0x04
     53c:	ed 81       	ldd	r30, Y+5	; 0x05
     53e:	fe 81       	ldd	r31, Y+6	; 0x06
     540:	25 8d       	ldd	r18, Z+29	; 0x1d
     542:	36 8d       	ldd	r19, Z+30	; 0x1e
     544:	47 8d       	ldd	r20, Z+31	; 0x1f
     546:	50 a1       	ldd	r21, Z+32	; 0x20
     548:	bc 01       	movw	r22, r24
     54a:	cd 01       	movw	r24, r26
     54c:	0e 94 86 16 	call	0x2d0c	; 0x2d0c <__subsf3>
     550:	46 2f       	mov	r20, r22
     552:	57 2f       	mov	r21, r23
     554:	bc 01       	movw	r22, r24
     556:	49 83       	std	Y+1, r20	; 0x01
     558:	5a 83       	std	Y+2, r21	; 0x02
     55a:	6b 83       	std	Y+3, r22	; 0x03
     55c:	7c 83       	std	Y+4, r23	; 0x04
     55e:	20 e0       	ldi	r18, 0x00	; 0
     560:	30 e0       	ldi	r19, 0x00	; 0
     562:	40 e8       	ldi	r20, 0x80	; 128
     564:	5f e3       	ldi	r21, 0x3F	; 63
     566:	69 81       	ldd	r22, Y+1	; 0x01
     568:	7a 81       	ldd	r23, Y+2	; 0x02
     56a:	8b 81       	ldd	r24, Y+3	; 0x03
     56c:	9c 81       	ldd	r25, Y+4	; 0x04
     56e:	0e 94 52 18 	call	0x30a4	; 0x30a4 <__gesf2>
     572:	87 fd       	sbrc	r24, 7
     574:	1c c0       	rjmp	.+56     	; 0x5ae <__FUSE_REGION_LENGTH__+0x1ae>
     576:	20 e0       	ldi	r18, 0x00	; 0
     578:	30 e0       	ldi	r19, 0x00	; 0
     57a:	40 e8       	ldi	r20, 0x80	; 128
     57c:	5f e3       	ldi	r21, 0x3F	; 63
     57e:	69 81       	ldd	r22, Y+1	; 0x01
     580:	7a 81       	ldd	r23, Y+2	; 0x02
     582:	8b 81       	ldd	r24, Y+3	; 0x03
     584:	9c 81       	ldd	r25, Y+4	; 0x04
     586:	0e 94 86 16 	call	0x2d0c	; 0x2d0c <__subsf3>
     58a:	46 2f       	mov	r20, r22
     58c:	57 2f       	mov	r21, r23
     58e:	bc 01       	movw	r22, r24
     590:	49 83       	std	Y+1, r20	; 0x01
     592:	5a 83       	std	Y+2, r21	; 0x02
     594:	6b 83       	std	Y+3, r22	; 0x03
     596:	7c 83       	std	Y+4, r23	; 0x04
     598:	ad 81       	ldd	r26, Y+5	; 0x05
     59a:	be 81       	ldd	r27, Y+6	; 0x06
     59c:	97 96       	adiw	r26, 0x27	; 39
     59e:	8d 91       	ld	r24, X+
     5a0:	9c 91       	ld	r25, X
     5a2:	98 97       	sbiw	r26, 0x28	; 40
     5a4:	01 96       	adiw	r24, 0x01	; 1
     5a6:	98 96       	adiw	r26, 0x28	; 40
     5a8:	9c 93       	st	X, r25
     5aa:	8e 93       	st	-X, r24
     5ac:	97 97       	sbiw	r26, 0x27	; 39
     5ae:	84 e1       	ldi	r24, 0x14	; 20
     5b0:	80 9f       	mul	r24, r16
     5b2:	f0 01       	movw	r30, r0
     5b4:	81 9f       	mul	r24, r17
     5b6:	f0 0d       	add	r31, r0
     5b8:	11 24       	eor	r1, r1
     5ba:	e3 5b       	subi	r30, 0xB3	; 179
     5bc:	fe 4f       	sbci	r31, 0xFE	; 254
     5be:	89 81       	ldd	r24, Y+1	; 0x01
     5c0:	9a 81       	ldd	r25, Y+2	; 0x02
     5c2:	ab 81       	ldd	r26, Y+3	; 0x03
     5c4:	bc 81       	ldd	r27, Y+4	; 0x04
     5c6:	81 a3       	std	Z+33, r24	; 0x21
     5c8:	92 a3       	std	Z+34, r25	; 0x22
     5ca:	a3 a3       	std	Z+35, r26	; 0x23
     5cc:	b4 a3       	std	Z+36, r27	; 0x24
     5ce:	a0 91 d9 02 	lds	r26, 0x02D9	; 0x8002d9 <pulsonic+0x18c>
     5d2:	b0 91 da 02 	lds	r27, 0x02DA	; 0x8002da <pulsonic+0x18d>
     5d6:	ba 87       	std	Y+10, r27	; 0x0a
     5d8:	a9 87       	std	Y+9, r26	; 0x09
     5da:	80 91 5e 01 	lds	r24, 0x015E	; 0x80015e <pulsonic+0x11>
     5de:	90 91 5f 01 	lds	r25, 0x015F	; 0x80015f <pulsonic+0x12>
     5e2:	a0 91 60 01 	lds	r26, 0x0160	; 0x800160 <pulsonic+0x13>
     5e6:	b0 91 61 01 	lds	r27, 0x0161	; 0x800161 <pulsonic+0x14>
     5ea:	8d 83       	std	Y+5, r24	; 0x05
     5ec:	9e 83       	std	Y+6, r25	; 0x06
     5ee:	af 83       	std	Y+7, r26	; 0x07
     5f0:	b8 87       	std	Y+8, r27	; 0x08
     5f2:	bc 01       	movw	r22, r24
     5f4:	cd 01       	movw	r24, r26
     5f6:	0e 94 6a 17 	call	0x2ed4	; 0x2ed4 <__fixsfsi>
     5fa:	6d 83       	std	Y+5, r22	; 0x05
     5fc:	7e 83       	std	Y+6, r23	; 0x06
     5fe:	8f 83       	std	Y+7, r24	; 0x07
     600:	98 87       	std	Y+8, r25	; 0x08
     602:	8d 81       	ldd	r24, Y+5	; 0x05
     604:	9e 81       	ldd	r25, Y+6	; 0x06
     606:	01 97       	sbiw	r24, 0x01	; 1
     608:	a9 85       	ldd	r26, Y+9	; 0x09
     60a:	ba 85       	ldd	r27, Y+10	; 0x0a
     60c:	8a 17       	cp	r24, r26
     60e:	9b 07       	cpc	r25, r27
     610:	c1 f4       	brne	.+48     	; 0x642 <__FUSE_REGION_LENGTH__+0x242>
     612:	20 e0       	ldi	r18, 0x00	; 0
     614:	30 e0       	ldi	r19, 0x00	; 0
     616:	a9 01       	movw	r20, r18
     618:	69 81       	ldd	r22, Y+1	; 0x01
     61a:	7a 81       	ldd	r23, Y+2	; 0x02
     61c:	8b 81       	ldd	r24, Y+3	; 0x03
     61e:	9c 81       	ldd	r25, Y+4	; 0x04
     620:	0e 94 52 18 	call	0x30a4	; 0x30a4 <__gesf2>
     624:	18 16       	cp	r1, r24
     626:	6c f4       	brge	.+26     	; 0x642 <__FUSE_REGION_LENGTH__+0x242>
     628:	84 e1       	ldi	r24, 0x14	; 20
     62a:	80 9f       	mul	r24, r16
     62c:	f0 01       	movw	r30, r0
     62e:	81 9f       	mul	r24, r17
     630:	f0 0d       	add	r31, r0
     632:	11 24       	eor	r1, r1
     634:	e3 5b       	subi	r30, 0xB3	; 179
     636:	fe 4f       	sbci	r31, 0xFE	; 254
     638:	87 a1       	ldd	r24, Z+39	; 0x27
     63a:	90 a5       	ldd	r25, Z+40	; 0x28
     63c:	01 96       	adiw	r24, 0x01	; 1
     63e:	90 a7       	std	Z+40, r25	; 0x28
     640:	87 a3       	std	Z+39, r24	; 0x27
     642:	84 e1       	ldi	r24, 0x14	; 20
     644:	80 9f       	mul	r24, r16
     646:	f0 01       	movw	r30, r0
     648:	81 9f       	mul	r24, r17
     64a:	f0 0d       	add	r31, r0
     64c:	11 24       	eor	r1, r1
     64e:	e3 5b       	subi	r30, 0xB3	; 179
     650:	fe 4f       	sbci	r31, 0xFE	; 254
     652:	fe 83       	std	Y+6, r31	; 0x06
     654:	ed 83       	std	Y+5, r30	; 0x05
     656:	85 8d       	ldd	r24, Z+29	; 0x1d
     658:	96 8d       	ldd	r25, Z+30	; 0x1e
     65a:	a7 8d       	ldd	r26, Z+31	; 0x1f
     65c:	b0 a1       	ldd	r27, Z+32	; 0x20
     65e:	89 83       	std	Y+1, r24	; 0x01
     660:	9a 83       	std	Y+2, r25	; 0x02
     662:	ab 83       	std	Y+3, r26	; 0x03
     664:	bc 83       	std	Y+4, r27	; 0x04
     666:	07 a1       	ldd	r16, Z+39	; 0x27
     668:	10 a5       	ldd	r17, Z+40	; 0x28
     66a:	bc 01       	movw	r22, r24
     66c:	cd 01       	movw	r24, r26
     66e:	0e 94 71 17 	call	0x2ee2	; 0x2ee2 <__fixunssfsi>
     672:	46 2f       	mov	r20, r22
     674:	57 2f       	mov	r21, r23
     676:	40 0f       	add	r20, r16
     678:	51 1f       	adc	r21, r17
     67a:	ed 81       	ldd	r30, Y+5	; 0x05
     67c:	fe 81       	ldd	r31, Y+6	; 0x06
     67e:	50 a7       	std	Z+40, r21	; 0x28
     680:	47 a3       	std	Z+39, r20	; 0x27
     682:	27 a1       	ldd	r18, Z+39	; 0x27
     684:	30 a5       	ldd	r19, Z+40	; 0x28
     686:	85 a1       	ldd	r24, Z+37	; 0x25
     688:	96 a1       	ldd	r25, Z+38	; 0x26
     68a:	82 0f       	add	r24, r18
     68c:	93 1f       	adc	r25, r19
     68e:	96 a3       	std	Z+38, r25	; 0x26
     690:	85 a3       	std	Z+37, r24	; 0x25
     692:	87 a1       	ldd	r24, Z+39	; 0x27
     694:	90 a5       	ldd	r25, Z+40	; 0x28
     696:	0e 94 23 13 	call	0x2646	; 0x2646 <pump_setTick>
     69a:	b6 ce       	rjmp	.-660    	; 0x408 <__FUSE_REGION_LENGTH__+0x8>
     69c:	19 82       	std	Y+1, r1	; 0x01
     69e:	1a 82       	std	Y+2, r1	; 0x02
     6a0:	1b 82       	std	Y+3, r1	; 0x03
     6a2:	1c 82       	std	Y+4, r1	; 0x04
     6a4:	94 cf       	rjmp	.-216    	; 0x5ce <__FUSE_REGION_LENGTH__+0x1ce>
     6a6:	85 30       	cpi	r24, 0x05	; 5
     6a8:	61 f4       	brne	.+24     	; 0x6c2 <__FUSE_REGION_LENGTH__+0x2c2>
     6aa:	0e 94 a1 13 	call	0x2742	; 0x2742 <pump_isIdle>
     6ae:	88 23       	and	r24, r24
     6b0:	09 f4       	brne	.+2      	; 0x6b4 <__FUSE_REGION_LENGTH__+0x2b4>
     6b2:	95 ce       	rjmp	.-726    	; 0x3de <autoMode1_job+0x52>
     6b4:	80 91 b9 00 	lds	r24, 0x00B9	; 0x8000b9 <numNozzle>
     6b8:	8f 5f       	subi	r24, 0xFF	; 255
     6ba:	80 93 b9 00 	sts	0x00B9, r24	; 0x8000b9 <numNozzle>
     6be:	83 e0       	ldi	r24, 0x03	; 3
     6c0:	da ce       	rjmp	.-588    	; 0x476 <__FUSE_REGION_LENGTH__+0x76>
     6c2:	86 30       	cpi	r24, 0x06	; 6
     6c4:	59 f4       	brne	.+22     	; 0x6dc <__FUSE_REGION_LENGTH__+0x2dc>
     6c6:	0e 94 9d 10 	call	0x213a	; 0x213a <mpap_isIdle>
     6ca:	88 23       	and	r24, r24
     6cc:	09 f4       	brne	.+2      	; 0x6d0 <__FUSE_REGION_LENGTH__+0x2d0>
     6ce:	87 ce       	rjmp	.-754    	; 0x3de <autoMode1_job+0x52>
     6d0:	63 e0       	ldi	r22, 0x03	; 3
     6d2:	88 ec       	ldi	r24, 0xC8	; 200
     6d4:	90 e0       	ldi	r25, 0x00	; 0
     6d6:	0e 94 32 0f 	call	0x1e64	; 0x1e64 <mpap_doMovement>
     6da:	96 ce       	rjmp	.-724    	; 0x408 <__FUSE_REGION_LENGTH__+0x8>
     6dc:	87 30       	cpi	r24, 0x07	; 7
     6de:	09 f0       	breq	.+2      	; 0x6e2 <__FUSE_REGION_LENGTH__+0x2e2>
     6e0:	7e ce       	rjmp	.-772    	; 0x3de <autoMode1_job+0x52>
     6e2:	0e 94 9d 10 	call	0x213a	; 0x213a <mpap_isIdle>
     6e6:	88 23       	and	r24, r24
     6e8:	09 f4       	brne	.+2      	; 0x6ec <__FUSE_REGION_LENGTH__+0x2ec>
     6ea:	79 ce       	rjmp	.-782    	; 0x3de <autoMode1_job+0x52>
     6ec:	40 91 5a 01 	lds	r20, 0x015A	; 0x80015a <pulsonic+0xd>
     6f0:	50 91 5b 01 	lds	r21, 0x015B	; 0x80015b <pulsonic+0xe>
     6f4:	60 91 5c 01 	lds	r22, 0x015C	; 0x80015c <pulsonic+0xf>
     6f8:	70 91 5d 01 	lds	r23, 0x015D	; 0x80015d <pulsonic+0x10>
     6fc:	80 91 b4 00 	lds	r24, 0x00B4	; 0x8000b4 <timeEllapsed.0>
     700:	90 91 b5 00 	lds	r25, 0x00B5	; 0x8000b5 <timeEllapsed.0+0x1>
     704:	a0 91 b6 00 	lds	r26, 0x00B6	; 0x8000b6 <timeEllapsed.0+0x2>
     708:	b0 91 b7 00 	lds	r27, 0x00B7	; 0x8000b7 <timeEllapsed.0+0x3>
     70c:	84 17       	cp	r24, r20
     70e:	95 07       	cpc	r25, r21
     710:	a6 07       	cpc	r26, r22
     712:	b7 07       	cpc	r27, r23
     714:	08 f4       	brcc	.+2      	; 0x718 <__FUSE_REGION_LENGTH__+0x318>
     716:	63 ce       	rjmp	.-826    	; 0x3de <autoMode1_job+0x52>
     718:	10 92 b4 00 	sts	0x00B4, r1	; 0x8000b4 <timeEllapsed.0>
     71c:	10 92 b5 00 	sts	0x00B5, r1	; 0x8000b5 <timeEllapsed.0+0x1>
     720:	10 92 b6 00 	sts	0x00B6, r1	; 0x8000b6 <timeEllapsed.0+0x2>
     724:	10 92 b7 00 	sts	0x00B7, r1	; 0x8000b7 <timeEllapsed.0+0x3>
     728:	10 92 b9 00 	sts	0x00B9, r1	; 0x8000b9 <numNozzle>
     72c:	83 e0       	ldi	r24, 0x03	; 3
     72e:	80 93 b8 00 	sts	0x00B8, r24	; 0x8000b8 <autoMode>
     732:	20 91 d9 02 	lds	r18, 0x02D9	; 0x8002d9 <pulsonic+0x18c>
     736:	30 91 da 02 	lds	r19, 0x02DA	; 0x8002da <pulsonic+0x18d>
     73a:	2f 5f       	subi	r18, 0xFF	; 255
     73c:	3f 4f       	sbci	r19, 0xFF	; 255
     73e:	3e 83       	std	Y+6, r19	; 0x06
     740:	2d 83       	std	Y+5, r18	; 0x05
     742:	30 93 da 02 	sts	0x02DA, r19	; 0x8002da <pulsonic+0x18d>
     746:	20 93 d9 02 	sts	0x02D9, r18	; 0x8002d9 <pulsonic+0x18c>
     74a:	80 91 5e 01 	lds	r24, 0x015E	; 0x80015e <pulsonic+0x11>
     74e:	90 91 5f 01 	lds	r25, 0x015F	; 0x80015f <pulsonic+0x12>
     752:	a0 91 60 01 	lds	r26, 0x0160	; 0x800160 <pulsonic+0x13>
     756:	b0 91 61 01 	lds	r27, 0x0161	; 0x800161 <pulsonic+0x14>
     75a:	89 83       	std	Y+1, r24	; 0x01
     75c:	9a 83       	std	Y+2, r25	; 0x02
     75e:	ab 83       	std	Y+3, r26	; 0x03
     760:	bc 83       	std	Y+4, r27	; 0x04
     762:	bc 01       	movw	r22, r24
     764:	cd 01       	movw	r24, r26
     766:	0e 94 6a 17 	call	0x2ed4	; 0x2ed4 <__fixsfsi>
     76a:	69 83       	std	Y+1, r22	; 0x01
     76c:	7a 83       	std	Y+2, r23	; 0x02
     76e:	8b 83       	std	Y+3, r24	; 0x03
     770:	9c 83       	std	Y+4, r25	; 0x04
     772:	ad 81       	ldd	r26, Y+5	; 0x05
     774:	be 81       	ldd	r27, Y+6	; 0x06
     776:	e9 81       	ldd	r30, Y+1	; 0x01
     778:	fa 81       	ldd	r31, Y+2	; 0x02
     77a:	ae 17       	cp	r26, r30
     77c:	bf 07       	cpc	r27, r31
     77e:	09 f0       	breq	.+2      	; 0x782 <__FUSE_REGION_LENGTH__+0x382>
     780:	2e ce       	rjmp	.-932    	; 0x3de <autoMode1_job+0x52>
     782:	10 92 da 02 	sts	0x02DA, r1	; 0x8002da <pulsonic+0x18d>
     786:	10 92 d9 02 	sts	0x02D9, r1	; 0x8002d9 <pulsonic+0x18c>
     78a:	29 ce       	rjmp	.-942    	; 0x3de <autoMode1_job+0x52>

0000078c <configMode_init>:
     78c:	eb eb       	ldi	r30, 0xBB	; 187
     78e:	f0 e0       	ldi	r31, 0x00	; 0
     790:	81 83       	std	Z+1, r24	; 0x01
     792:	81 e0       	ldi	r24, 0x01	; 1
     794:	80 83       	st	Z, r24
     796:	08 95       	ret

00000798 <configMode_job>:
     798:	df 92       	push	r13
     79a:	ef 92       	push	r14
     79c:	ff 92       	push	r15
     79e:	0f 93       	push	r16
     7a0:	1f 93       	push	r17
     7a2:	cf 93       	push	r28
     7a4:	df 93       	push	r29
     7a6:	cd b7       	in	r28, 0x3d	; 61
     7a8:	de b7       	in	r29, 0x3e	; 62
     7aa:	2a 97       	sbiw	r28, 0x0a	; 10
     7ac:	0f b6       	in	r0, 0x3f	; 63
     7ae:	f8 94       	cli
     7b0:	de bf       	out	0x3e, r29	; 62
     7b2:	0f be       	out	0x3f, r0	; 63
     7b4:	cd bf       	out	0x3d, r28	; 61
     7b6:	80 91 ba 00 	lds	r24, 0x00BA	; 0x8000ba <flushAtNozzle_active.0>
     7ba:	81 11       	cpse	r24, r1
     7bc:	12 c0       	rjmp	.+36     	; 0x7e2 <configMode_job+0x4a>
     7be:	0e 94 ff 09 	call	0x13fe	; 0x13fe <ikb_key_is_ready2read>
     7c2:	88 23       	and	r24, r24
     7c4:	09 f4       	brne	.+2      	; 0x7c8 <configMode_job+0x30>
     7c6:	40 c1       	rjmp	.+640    	; 0xa48 <__stack+0x1e9>
     7c8:	80 91 bc 00 	lds	r24, 0x00BC	; 0x8000bc <configMode+0x1>
     7cc:	8f 5f       	subi	r24, 0xFF	; 255
     7ce:	83 31       	cpi	r24, 0x13	; 19
     7d0:	1c f4       	brge	.+6      	; 0x7d8 <configMode_job+0x40>
     7d2:	80 93 bc 00 	sts	0x00BC, r24	; 0x8000bc <configMode+0x1>
     7d6:	02 c0       	rjmp	.+4      	; 0x7dc <configMode_job+0x44>
     7d8:	10 92 bc 00 	sts	0x00BC, r1	; 0x8000bc <configMode+0x1>
     7dc:	81 e0       	ldi	r24, 0x01	; 1
     7de:	80 93 bb 00 	sts	0x00BB, r24	; 0x8000bb <configMode>
     7e2:	80 e0       	ldi	r24, 0x00	; 0
     7e4:	0e 94 13 0a 	call	0x1426	; 0x1426 <ikb_key_was_read>
     7e8:	81 e0       	ldi	r24, 0x01	; 1
     7ea:	0e 94 13 0a 	call	0x1426	; 0x1426 <ikb_key_was_read>
     7ee:	82 e0       	ldi	r24, 0x02	; 2
     7f0:	0e 94 f4 09 	call	0x13e8	; 0x13e8 <ikb_get_AtTimeExpired_BeforeOrAfter>
     7f4:	81 11       	cpse	r24, r1
     7f6:	62 c0       	rjmp	.+196    	; 0x8bc <__stack+0x5d>
     7f8:	82 e0       	ldi	r24, 0x02	; 2
     7fa:	0e 94 ff 09 	call	0x13fe	; 0x13fe <ikb_key_is_ready2read>
     7fe:	88 23       	and	r24, r24
     800:	09 f4       	brne	.+2      	; 0x804 <configMode_job+0x6c>
     802:	5c c0       	rjmp	.+184    	; 0x8bc <__stack+0x5d>
     804:	80 91 ba 00 	lds	r24, 0x00BA	; 0x8000ba <flushAtNozzle_active.0>
     808:	81 11       	cpse	r24, r1
     80a:	55 c0       	rjmp	.+170    	; 0x8b6 <__stack+0x57>
     80c:	00 91 bc 00 	lds	r16, 0x00BC	; 0x8000bc <configMode+0x1>
     810:	02 31       	cpi	r16, 0x12	; 18
     812:	0c f0       	brlt	.+2      	; 0x816 <configMode_job+0x7e>
     814:	46 c1       	rjmp	.+652    	; 0xaa2 <__stack+0x243>
     816:	e0 2e       	mov	r14, r16
     818:	00 2e       	mov	r0, r16
     81a:	00 0c       	add	r0, r0
     81c:	ff 08       	sbc	r15, r15
     81e:	24 e1       	ldi	r18, 0x14	; 20
     820:	02 02       	muls	r16, r18
     822:	80 01       	movw	r16, r0
     824:	11 24       	eor	r1, r1
     826:	03 5b       	subi	r16, 0xB3	; 179
     828:	1e 4f       	sbci	r17, 0xFE	; 254
     82a:	d8 01       	movw	r26, r16
     82c:	55 96       	adiw	r26, 0x15	; 21
     82e:	8d 91       	ld	r24, X+
     830:	9d 91       	ld	r25, X+
     832:	0d 90       	ld	r0, X+
     834:	bc 91       	ld	r27, X
     836:	a0 2d       	mov	r26, r0
     838:	8f 83       	std	Y+7, r24	; 0x07
     83a:	98 87       	std	Y+8, r25	; 0x08
     83c:	a9 87       	std	Y+9, r26	; 0x09
     83e:	ba 87       	std	Y+10, r27	; 0x0a
     840:	20 e0       	ldi	r18, 0x00	; 0
     842:	30 e0       	ldi	r19, 0x00	; 0
     844:	a9 01       	movw	r20, r18
     846:	bc 01       	movw	r22, r24
     848:	cd 01       	movw	r24, r26
     84a:	0e 94 f3 16 	call	0x2de6	; 0x2de6 <__cmpsf2>
     84e:	81 11       	cpse	r24, r1
     850:	08 c1       	rjmp	.+528    	; 0xa62 <__stack+0x203>
     852:	8a e9       	ldi	r24, 0x9A	; 154
     854:	99 e9       	ldi	r25, 0x99	; 153
     856:	a9 e9       	ldi	r26, 0x99	; 153
     858:	be e3       	ldi	r27, 0x3E	; 62
     85a:	f8 01       	movw	r30, r16
     85c:	85 8b       	std	Z+21, r24	; 0x15
     85e:	96 8b       	std	Z+22, r25	; 0x16
     860:	a7 8b       	std	Z+23, r26	; 0x17
     862:	b0 8f       	std	Z+24, r27	; 0x18
     864:	84 e1       	ldi	r24, 0x14	; 20
     866:	8e 9d       	mul	r24, r14
     868:	80 01       	movw	r16, r0
     86a:	8f 9d       	mul	r24, r15
     86c:	10 0d       	add	r17, r0
     86e:	11 24       	eor	r1, r1
     870:	03 5b       	subi	r16, 0xB3	; 179
     872:	1e 4f       	sbci	r17, 0xFE	; 254
     874:	d8 01       	movw	r26, r16
     876:	55 96       	adiw	r26, 0x15	; 21
     878:	8d 91       	ld	r24, X+
     87a:	9d 91       	ld	r25, X+
     87c:	0d 90       	ld	r0, X+
     87e:	bc 91       	ld	r27, X
     880:	a0 2d       	mov	r26, r0
     882:	8f 83       	std	Y+7, r24	; 0x07
     884:	98 87       	std	Y+8, r25	; 0x08
     886:	a9 87       	std	Y+9, r26	; 0x09
     888:	ba 87       	std	Y+10, r27	; 0x0a
     88a:	20 e0       	ldi	r18, 0x00	; 0
     88c:	30 e0       	ldi	r19, 0x00	; 0
     88e:	40 e4       	ldi	r20, 0x40	; 64
     890:	51 e4       	ldi	r21, 0x41	; 65
     892:	bc 01       	movw	r22, r24
     894:	cd 01       	movw	r24, r26
     896:	0e 94 52 18 	call	0x30a4	; 0x30a4 <__gesf2>
     89a:	87 fd       	sbrc	r24, 7
     89c:	09 c0       	rjmp	.+18     	; 0x8b0 <__stack+0x51>
     89e:	80 e0       	ldi	r24, 0x00	; 0
     8a0:	90 e0       	ldi	r25, 0x00	; 0
     8a2:	a0 e4       	ldi	r26, 0x40	; 64
     8a4:	b1 e4       	ldi	r27, 0x41	; 65
     8a6:	f8 01       	movw	r30, r16
     8a8:	85 8b       	std	Z+21, r24	; 0x15
     8aa:	96 8b       	std	Z+22, r25	; 0x16
     8ac:	a7 8b       	std	Z+23, r26	; 0x17
     8ae:	b0 8f       	std	Z+24, r27	; 0x18
     8b0:	81 e0       	ldi	r24, 0x01	; 1
     8b2:	80 93 bb 00 	sts	0x00BB, r24	; 0x8000bb <configMode>
     8b6:	82 e0       	ldi	r24, 0x02	; 2
     8b8:	0e 94 13 0a 	call	0x1426	; 0x1426 <ikb_key_was_read>
     8bc:	83 e0       	ldi	r24, 0x03	; 3
     8be:	0e 94 f4 09 	call	0x13e8	; 0x13e8 <ikb_get_AtTimeExpired_BeforeOrAfter>
     8c2:	81 11       	cpse	r24, r1
     8c4:	60 c0       	rjmp	.+192    	; 0x986 <__stack+0x127>
     8c6:	83 e0       	ldi	r24, 0x03	; 3
     8c8:	0e 94 ff 09 	call	0x13fe	; 0x13fe <ikb_key_is_ready2read>
     8cc:	88 23       	and	r24, r24
     8ce:	09 f4       	brne	.+2      	; 0x8d2 <__stack+0x73>
     8d0:	5a c0       	rjmp	.+180    	; 0x986 <__stack+0x127>
     8d2:	80 91 ba 00 	lds	r24, 0x00BA	; 0x8000ba <flushAtNozzle_active.0>
     8d6:	81 11       	cpse	r24, r1
     8d8:	53 c0       	rjmp	.+166    	; 0x980 <__stack+0x121>
     8da:	f0 90 bc 00 	lds	r15, 0x00BC	; 0x8000bc <configMode+0x1>
     8de:	f1 e1       	ldi	r31, 0x11	; 17
     8e0:	ff 15       	cp	r31, r15
     8e2:	0c f4       	brge	.+2      	; 0x8e6 <__stack+0x87>
     8e4:	0a c1       	rjmp	.+532    	; 0xafa <__stack+0x29b>
     8e6:	2f 2d       	mov	r18, r15
     8e8:	84 e1       	ldi	r24, 0x14	; 20
     8ea:	28 02       	muls	r18, r24
     8ec:	80 01       	movw	r16, r0
     8ee:	11 24       	eor	r1, r1
     8f0:	03 5b       	subi	r16, 0xB3	; 179
     8f2:	1e 4f       	sbci	r17, 0xFE	; 254
     8f4:	d8 01       	movw	r26, r16
     8f6:	55 96       	adiw	r26, 0x15	; 21
     8f8:	8d 91       	ld	r24, X+
     8fa:	9d 91       	ld	r25, X+
     8fc:	0d 90       	ld	r0, X+
     8fe:	bc 91       	ld	r27, X
     900:	a0 2d       	mov	r26, r0
     902:	8f 83       	std	Y+7, r24	; 0x07
     904:	98 87       	std	Y+8, r25	; 0x08
     906:	a9 87       	std	Y+9, r26	; 0x09
     908:	ba 87       	std	Y+10, r27	; 0x0a
     90a:	20 91 88 00 	lds	r18, 0x0088	; 0x800088 <NOZZLE_QTY_DIFF>
     90e:	30 91 89 00 	lds	r19, 0x0089	; 0x800089 <NOZZLE_QTY_DIFF+0x1>
     912:	40 91 8a 00 	lds	r20, 0x008A	; 0x80008a <NOZZLE_QTY_DIFF+0x2>
     916:	50 91 8b 00 	lds	r21, 0x008B	; 0x80008b <NOZZLE_QTY_DIFF+0x3>
     91a:	bc 01       	movw	r22, r24
     91c:	cd 01       	movw	r24, r26
     91e:	0e 94 86 16 	call	0x2d0c	; 0x2d0c <__subsf3>
     922:	46 2f       	mov	r20, r22
     924:	57 2f       	mov	r21, r23
     926:	bc 01       	movw	r22, r24
     928:	f8 01       	movw	r30, r16
     92a:	45 8b       	std	Z+21, r20	; 0x15
     92c:	56 8b       	std	Z+22, r21	; 0x16
     92e:	67 8b       	std	Z+23, r22	; 0x17
     930:	70 8f       	std	Z+24, r23	; 0x18
     932:	f1 10       	cpse	r15, r1
     934:	ca c0       	rjmp	.+404    	; 0xaca <__stack+0x26b>
     936:	80 91 62 01 	lds	r24, 0x0162	; 0x800162 <pulsonic+0x15>
     93a:	90 91 63 01 	lds	r25, 0x0163	; 0x800163 <pulsonic+0x16>
     93e:	a0 91 64 01 	lds	r26, 0x0164	; 0x800164 <pulsonic+0x17>
     942:	b0 91 65 01 	lds	r27, 0x0165	; 0x800165 <pulsonic+0x18>
     946:	8f 83       	std	Y+7, r24	; 0x07
     948:	98 87       	std	Y+8, r25	; 0x08
     94a:	a9 87       	std	Y+9, r26	; 0x09
     94c:	ba 87       	std	Y+10, r27	; 0x0a
     94e:	2a e9       	ldi	r18, 0x9A	; 154
     950:	39 e9       	ldi	r19, 0x99	; 153
     952:	49 e9       	ldi	r20, 0x99	; 153
     954:	5e e3       	ldi	r21, 0x3E	; 62
     956:	bc 01       	movw	r22, r24
     958:	cd 01       	movw	r24, r26
     95a:	0e 94 f3 16 	call	0x2de6	; 0x2de6 <__cmpsf2>
     95e:	87 ff       	sbrs	r24, 7
     960:	0c c0       	rjmp	.+24     	; 0x97a <__stack+0x11b>
     962:	8a e9       	ldi	r24, 0x9A	; 154
     964:	99 e9       	ldi	r25, 0x99	; 153
     966:	a9 e9       	ldi	r26, 0x99	; 153
     968:	be e3       	ldi	r27, 0x3E	; 62
     96a:	80 93 62 01 	sts	0x0162, r24	; 0x800162 <pulsonic+0x15>
     96e:	90 93 63 01 	sts	0x0163, r25	; 0x800163 <pulsonic+0x16>
     972:	a0 93 64 01 	sts	0x0164, r26	; 0x800164 <pulsonic+0x17>
     976:	b0 93 65 01 	sts	0x0165, r27	; 0x800165 <pulsonic+0x18>
     97a:	81 e0       	ldi	r24, 0x01	; 1
     97c:	80 93 bb 00 	sts	0x00BB, r24	; 0x8000bb <configMode>
     980:	83 e0       	ldi	r24, 0x03	; 3
     982:	0e 94 13 0a 	call	0x1426	; 0x1426 <ikb_key_was_read>
     986:	84 e0       	ldi	r24, 0x04	; 4
     988:	0e 94 ff 09 	call	0x13fe	; 0x13fe <ikb_key_is_ready2read>
     98c:	88 23       	and	r24, r24
     98e:	a9 f0       	breq	.+42     	; 0x9ba <__stack+0x15b>
     990:	84 e0       	ldi	r24, 0x04	; 4
     992:	0e 94 13 0a 	call	0x1426	; 0x1426 <ikb_key_was_read>
     996:	80 91 bc 00 	lds	r24, 0x00BC	; 0x8000bc <configMode+0x1>
     99a:	82 31       	cpi	r24, 0x12	; 18
     99c:	74 f4       	brge	.+28     	; 0x9ba <__stack+0x15b>
     99e:	90 91 ba 00 	lds	r25, 0x00BA	; 0x8000ba <flushAtNozzle_active.0>
     9a2:	21 e0       	ldi	r18, 0x01	; 1
     9a4:	91 11       	cpse	r25, r1
     9a6:	20 e0       	ldi	r18, 0x00	; 0
     9a8:	20 93 ba 00 	sts	0x00BA, r18	; 0x8000ba <flushAtNozzle_active.0>
     9ac:	91 11       	cpse	r25, r1
     9ae:	ba c0       	rjmp	.+372    	; 0xb24 <__stack+0x2c5>
     9b0:	0e 94 0c 09 	call	0x1218	; 0x1218 <flushAtNozzle_setNozzle>
     9b4:	80 e0       	ldi	r24, 0x00	; 0
     9b6:	0e 94 0f 09 	call	0x121e	; 0x121e <flushAtNozzle_cmd>
     9ba:	82 e0       	ldi	r24, 0x02	; 2
     9bc:	0e 94 f4 09 	call	0x13e8	; 0x13e8 <ikb_get_AtTimeExpired_BeforeOrAfter>
     9c0:	81 30       	cpi	r24, 0x01	; 1
     9c2:	09 f4       	brne	.+2      	; 0x9c6 <__stack+0x167>
     9c4:	b3 c0       	rjmp	.+358    	; 0xb2c <__stack+0x2cd>
     9c6:	f1 2c       	mov	r15, r1
     9c8:	80 91 bb 00 	lds	r24, 0x00BB	; 0x8000bb <configMode>
     9cc:	81 30       	cpi	r24, 0x01	; 1
     9ce:	69 f5       	brne	.+90     	; 0xa2a <__stack+0x1cb>
     9d0:	80 91 2f 01 	lds	r24, 0x012F	; 0x80012f <disp_owner>
     9d4:	82 30       	cpi	r24, 0x02	; 2
     9d6:	39 f5       	brne	.+78     	; 0xa26 <__stack+0x1c7>
     9d8:	00 91 bc 00 	lds	r16, 0x00BC	; 0x8000bc <configMode+0x1>
     9dc:	02 31       	cpi	r16, 0x12	; 18
     9de:	0c f0       	brlt	.+2      	; 0x9e2 <__stack+0x183>
     9e0:	0b c1       	rjmp	.+534    	; 0xbf8 <__stack+0x399>
     9e2:	00 2e       	mov	r0, r16
     9e4:	00 0c       	add	r0, r0
     9e6:	11 0b       	sbc	r17, r17
     9e8:	c8 01       	movw	r24, r16
     9ea:	01 96       	adiw	r24, 0x01	; 1
     9ec:	0e 94 7b 08 	call	0x10f6	; 0x10f6 <disp7s_modeDisp_writeInt>
     9f0:	84 e1       	ldi	r24, 0x14	; 20
     9f2:	80 9f       	mul	r24, r16
     9f4:	f0 01       	movw	r30, r0
     9f6:	81 9f       	mul	r24, r17
     9f8:	f0 0d       	add	r31, r0
     9fa:	11 24       	eor	r1, r1
     9fc:	e3 5b       	subi	r30, 0xB3	; 179
     9fe:	fe 4f       	sbci	r31, 0xFE	; 254
     a00:	85 89       	ldd	r24, Z+21	; 0x15
     a02:	96 89       	ldd	r25, Z+22	; 0x16
     a04:	a7 89       	ldd	r26, Z+23	; 0x17
     a06:	b0 8d       	ldd	r27, Z+24	; 0x18
     a08:	8f 83       	std	Y+7, r24	; 0x07
     a0a:	98 87       	std	Y+8, r25	; 0x08
     a0c:	a9 87       	std	Y+9, r26	; 0x09
     a0e:	ba 87       	std	Y+10, r27	; 0x0a
     a10:	20 e0       	ldi	r18, 0x00	; 0
     a12:	30 e0       	ldi	r19, 0x00	; 0
     a14:	a9 01       	movw	r20, r18
     a16:	bc 01       	movw	r22, r24
     a18:	cd 01       	movw	r24, r26
     a1a:	0e 94 f3 16 	call	0x2de6	; 0x2de6 <__cmpsf2>
     a1e:	81 11       	cpse	r24, r1
     a20:	e4 c0       	rjmp	.+456    	; 0xbea <__stack+0x38b>
     a22:	0e 94 dd 06 	call	0xdba	; 0xdba <disp7s_qtyDisp_writeText_OFF>
     a26:	10 92 bb 00 	sts	0x00BB, r1	; 0x8000bb <configMode>
     a2a:	8f 2d       	mov	r24, r15
     a2c:	2a 96       	adiw	r28, 0x0a	; 10
     a2e:	0f b6       	in	r0, 0x3f	; 63
     a30:	f8 94       	cli
     a32:	de bf       	out	0x3e, r29	; 62
     a34:	0f be       	out	0x3f, r0	; 63
     a36:	cd bf       	out	0x3d, r28	; 61
     a38:	df 91       	pop	r29
     a3a:	cf 91       	pop	r28
     a3c:	1f 91       	pop	r17
     a3e:	0f 91       	pop	r16
     a40:	ff 90       	pop	r15
     a42:	ef 90       	pop	r14
     a44:	df 90       	pop	r13
     a46:	08 95       	ret
     a48:	81 e0       	ldi	r24, 0x01	; 1
     a4a:	0e 94 ff 09 	call	0x13fe	; 0x13fe <ikb_key_is_ready2read>
     a4e:	88 23       	and	r24, r24
     a50:	09 f4       	brne	.+2      	; 0xa54 <__stack+0x1f5>
     a52:	c7 ce       	rjmp	.-626    	; 0x7e2 <configMode_job+0x4a>
     a54:	80 91 bc 00 	lds	r24, 0x00BC	; 0x8000bc <configMode+0x1>
     a58:	81 50       	subi	r24, 0x01	; 1
     a5a:	87 ff       	sbrs	r24, 7
     a5c:	ba ce       	rjmp	.-652    	; 0x7d2 <configMode_job+0x3a>
     a5e:	82 e1       	ldi	r24, 0x12	; 18
     a60:	b8 ce       	rjmp	.-656    	; 0x7d2 <configMode_job+0x3a>
     a62:	d8 01       	movw	r26, r16
     a64:	55 96       	adiw	r26, 0x15	; 21
     a66:	8d 91       	ld	r24, X+
     a68:	9d 91       	ld	r25, X+
     a6a:	0d 90       	ld	r0, X+
     a6c:	bc 91       	ld	r27, X
     a6e:	a0 2d       	mov	r26, r0
     a70:	8f 83       	std	Y+7, r24	; 0x07
     a72:	98 87       	std	Y+8, r25	; 0x08
     a74:	a9 87       	std	Y+9, r26	; 0x09
     a76:	ba 87       	std	Y+10, r27	; 0x0a
     a78:	20 91 88 00 	lds	r18, 0x0088	; 0x800088 <NOZZLE_QTY_DIFF>
     a7c:	30 91 89 00 	lds	r19, 0x0089	; 0x800089 <NOZZLE_QTY_DIFF+0x1>
     a80:	40 91 8a 00 	lds	r20, 0x008A	; 0x80008a <NOZZLE_QTY_DIFF+0x2>
     a84:	50 91 8b 00 	lds	r21, 0x008B	; 0x80008b <NOZZLE_QTY_DIFF+0x3>
     a88:	bc 01       	movw	r22, r24
     a8a:	cd 01       	movw	r24, r26
     a8c:	0e 94 87 16 	call	0x2d0e	; 0x2d0e <__addsf3>
     a90:	46 2f       	mov	r20, r22
     a92:	57 2f       	mov	r21, r23
     a94:	bc 01       	movw	r22, r24
     a96:	f8 01       	movw	r30, r16
     a98:	45 8b       	std	Z+21, r20	; 0x15
     a9a:	56 8b       	std	Z+22, r21	; 0x16
     a9c:	67 8b       	std	Z+23, r22	; 0x17
     a9e:	70 8f       	std	Z+24, r23	; 0x18
     aa0:	e1 ce       	rjmp	.-574    	; 0x864 <__stack+0x5>
     aa2:	80 91 ca 02 	lds	r24, 0x02CA	; 0x8002ca <pulsonic+0x17d>
     aa6:	8f 5f       	subi	r24, 0xFF	; 255
     aa8:	80 93 ca 02 	sts	0x02CA, r24	; 0x8002ca <pulsonic+0x17d>
     aac:	84 30       	cpi	r24, 0x04	; 4
     aae:	14 f0       	brlt	.+4      	; 0xab4 <__stack+0x255>
     ab0:	10 92 ca 02 	sts	0x02CA, r1	; 0x8002ca <pulsonic+0x17d>
     ab4:	e0 91 ca 02 	lds	r30, 0x02CA	; 0x8002ca <pulsonic+0x17d>
     ab8:	0e 2e       	mov	r0, r30
     aba:	00 0c       	add	r0, r0
     abc:	ff 0b       	sbc	r31, r31
     abe:	ea 55       	subi	r30, 0x5A	; 90
     ac0:	ff 4f       	sbci	r31, 0xFF	; 255
     ac2:	80 81       	ld	r24, Z
     ac4:	80 93 cb 02 	sts	0x02CB, r24	; 0x8002cb <pulsonic+0x17e>
     ac8:	f3 ce       	rjmp	.-538    	; 0x8b0 <__stack+0x51>
     aca:	85 89       	ldd	r24, Z+21	; 0x15
     acc:	96 89       	ldd	r25, Z+22	; 0x16
     ace:	a7 89       	ldd	r26, Z+23	; 0x17
     ad0:	b0 8d       	ldd	r27, Z+24	; 0x18
     ad2:	8f 83       	std	Y+7, r24	; 0x07
     ad4:	98 87       	std	Y+8, r25	; 0x08
     ad6:	a9 87       	std	Y+9, r26	; 0x09
     ad8:	ba 87       	std	Y+10, r27	; 0x0a
     ada:	2a e9       	ldi	r18, 0x9A	; 154
     adc:	39 e9       	ldi	r19, 0x99	; 153
     ade:	49 e9       	ldi	r20, 0x99	; 153
     ae0:	5e e3       	ldi	r21, 0x3E	; 62
     ae2:	bc 01       	movw	r22, r24
     ae4:	cd 01       	movw	r24, r26
     ae6:	0e 94 f3 16 	call	0x2de6	; 0x2de6 <__cmpsf2>
     aea:	87 ff       	sbrs	r24, 7
     aec:	46 cf       	rjmp	.-372    	; 0x97a <__stack+0x11b>
     aee:	f8 01       	movw	r30, r16
     af0:	15 8a       	std	Z+21, r1	; 0x15
     af2:	16 8a       	std	Z+22, r1	; 0x16
     af4:	17 8a       	std	Z+23, r1	; 0x17
     af6:	10 8e       	std	Z+24, r1	; 0x18
     af8:	40 cf       	rjmp	.-384    	; 0x97a <__stack+0x11b>
     afa:	80 91 ca 02 	lds	r24, 0x02CA	; 0x8002ca <pulsonic+0x17d>
     afe:	81 50       	subi	r24, 0x01	; 1
     b00:	80 93 ca 02 	sts	0x02CA, r24	; 0x8002ca <pulsonic+0x17d>
     b04:	87 ff       	sbrs	r24, 7
     b06:	03 c0       	rjmp	.+6      	; 0xb0e <__stack+0x2af>
     b08:	83 e0       	ldi	r24, 0x03	; 3
     b0a:	80 93 ca 02 	sts	0x02CA, r24	; 0x8002ca <pulsonic+0x17d>
     b0e:	e0 91 ca 02 	lds	r30, 0x02CA	; 0x8002ca <pulsonic+0x17d>
     b12:	0e 2e       	mov	r0, r30
     b14:	00 0c       	add	r0, r0
     b16:	ff 0b       	sbc	r31, r31
     b18:	ea 55       	subi	r30, 0x5A	; 90
     b1a:	ff 4f       	sbci	r31, 0xFF	; 255
     b1c:	80 81       	ld	r24, Z
     b1e:	80 93 cb 02 	sts	0x02CB, r24	; 0x8002cb <pulsonic+0x17e>
     b22:	2b cf       	rjmp	.-426    	; 0x97a <__stack+0x11b>
     b24:	81 e0       	ldi	r24, 0x01	; 1
     b26:	80 93 bb 00 	sts	0x00BB, r24	; 0x8000bb <configMode>
     b2a:	45 cf       	rjmp	.-374    	; 0x9b6 <__stack+0x157>
     b2c:	82 e0       	ldi	r24, 0x02	; 2
     b2e:	0e 94 ff 09 	call	0x13fe	; 0x13fe <ikb_key_is_ready2read>
     b32:	88 23       	and	r24, r24
     b34:	09 f4       	brne	.+2      	; 0xb38 <__stack+0x2d9>
     b36:	47 cf       	rjmp	.-370    	; 0x9c6 <__stack+0x167>
     b38:	83 e0       	ldi	r24, 0x03	; 3
     b3a:	0e 94 f4 09 	call	0x13e8	; 0x13e8 <ikb_get_AtTimeExpired_BeforeOrAfter>
     b3e:	81 30       	cpi	r24, 0x01	; 1
     b40:	09 f0       	breq	.+2      	; 0xb44 <__stack+0x2e5>
     b42:	41 cf       	rjmp	.-382    	; 0x9c6 <__stack+0x167>
     b44:	83 e0       	ldi	r24, 0x03	; 3
     b46:	0e 94 ff 09 	call	0x13fe	; 0x13fe <ikb_key_is_ready2read>
     b4a:	88 23       	and	r24, r24
     b4c:	09 f4       	brne	.+2      	; 0xb50 <__stack+0x2f1>
     b4e:	3b cf       	rjmp	.-394    	; 0x9c6 <__stack+0x167>
     b50:	82 e0       	ldi	r24, 0x02	; 2
     b52:	0e 94 13 0a 	call	0x1426	; 0x1426 <ikb_key_was_read>
     b56:	83 e0       	ldi	r24, 0x03	; 3
     b58:	0e 94 13 0a 	call	0x1426	; 0x1426 <ikb_key_was_read>
     b5c:	10 e0       	ldi	r17, 0x00	; 0
     b5e:	00 e0       	ldi	r16, 0x00	; 0
     b60:	81 e0       	ldi	r24, 0x01	; 1
     b62:	e8 2e       	mov	r14, r24
     b64:	80 e0       	ldi	r24, 0x00	; 0
     b66:	f8 2e       	mov	r15, r24
     b68:	94 e1       	ldi	r25, 0x14	; 20
     b6a:	d9 2e       	mov	r13, r25
     b6c:	d0 9e       	mul	r13, r16
     b6e:	f0 01       	movw	r30, r0
     b70:	d1 9e       	mul	r13, r17
     b72:	f0 0d       	add	r31, r0
     b74:	11 24       	eor	r1, r1
     b76:	e3 5b       	subi	r30, 0xB3	; 179
     b78:	fe 4f       	sbci	r31, 0xFE	; 254
     b7a:	45 89       	ldd	r20, Z+21	; 0x15
     b7c:	56 89       	ldd	r21, Z+22	; 0x16
     b7e:	67 89       	ldd	r22, Z+23	; 0x17
     b80:	70 8d       	ldd	r23, Z+24	; 0x18
     b82:	c7 01       	movw	r24, r14
     b84:	f4 e0       	ldi	r31, 0x04	; 4
     b86:	ef 0e       	add	r14, r31
     b88:	f1 1c       	adc	r15, r1
     b8a:	0e 94 1f 19 	call	0x323e	; 0x323e <eeprom_update_dword>
     b8e:	0f 5f       	subi	r16, 0xFF	; 255
     b90:	1f 4f       	sbci	r17, 0xFF	; 255
     b92:	02 31       	cpi	r16, 0x12	; 18
     b94:	11 05       	cpc	r17, r1
     b96:	51 f7       	brne	.-44     	; 0xb6c <__stack+0x30d>
     b98:	60 91 ca 02 	lds	r22, 0x02CA	; 0x8002ca <pulsonic+0x17d>
     b9c:	80 e0       	ldi	r24, 0x00	; 0
     b9e:	90 e0       	ldi	r25, 0x00	; 0
     ba0:	0e 94 0e 19 	call	0x321c	; 0x321c <eeprom_update_byte>
     ba4:	0e 94 06 12 	call	0x240c	; 0x240c <pulsonic_getNumNozzleAvailable>
     ba8:	80 93 d0 02 	sts	0x02D0, r24	; 0x8002d0 <pulsonic+0x183>
     bac:	10 92 ba 00 	sts	0x00BA, r1	; 0x8000ba <flushAtNozzle_active.0>
     bb0:	81 e0       	ldi	r24, 0x01	; 1
     bb2:	0e 94 0f 09 	call	0x121e	; 0x121e <flushAtNozzle_cmd>
     bb6:	86 e0       	ldi	r24, 0x06	; 6
     bb8:	e0 ea       	ldi	r30, 0xA0	; 160
     bba:	f0 e0       	ldi	r31, 0x00	; 0
     bbc:	de 01       	movw	r26, r28
     bbe:	11 96       	adiw	r26, 0x01	; 1
     bc0:	01 90       	ld	r0, Z+
     bc2:	0d 92       	st	X+, r0
     bc4:	8a 95       	dec	r24
     bc6:	e1 f7       	brne	.-8      	; 0xbc0 <__stack+0x361>
     bc8:	29 81       	ldd	r18, Y+1	; 0x01
     bca:	28 60       	ori	r18, 0x08	; 8
     bcc:	29 83       	std	Y+1, r18	; 0x01
     bce:	3a 81       	ldd	r19, Y+2	; 0x02
     bd0:	4b 81       	ldd	r20, Y+3	; 0x03
     bd2:	5c 81       	ldd	r21, Y+4	; 0x04
     bd4:	6d 81       	ldd	r22, Y+5	; 0x05
     bd6:	7e 81       	ldd	r23, Y+6	; 0x06
     bd8:	84 e0       	ldi	r24, 0x04	; 4
     bda:	0e 94 80 09 	call	0x1300	; 0x1300 <ikb_setKeyProp>
     bde:	80 e0       	ldi	r24, 0x00	; 0
     be0:	0e 94 3a 06 	call	0xc74	; 0xc74 <disp7s_setBlink_qty>
     be4:	ff 24       	eor	r15, r15
     be6:	f3 94       	inc	r15
     be8:	ef ce       	rjmp	.-546    	; 0x9c8 <__stack+0x169>
     bea:	6f 81       	ldd	r22, Y+7	; 0x07
     bec:	78 85       	ldd	r23, Y+8	; 0x08
     bee:	89 85       	ldd	r24, Y+9	; 0x09
     bf0:	9a 85       	ldd	r25, Y+10	; 0x0a
     bf2:	0e 94 00 08 	call	0x1000	; 0x1000 <disp7s_qtyDisp_writeFloat>
     bf6:	17 cf       	rjmp	.-466    	; 0xa26 <__stack+0x1c7>
     bf8:	0e 94 d6 06 	call	0xdac	; 0xdac <disp7s_modeDisp_writeText_oil>
     bfc:	80 91 cb 02 	lds	r24, 0x02CB	; 0x8002cb <pulsonic+0x17e>
     c00:	08 2e       	mov	r0, r24
     c02:	00 0c       	add	r0, r0
     c04:	99 0b       	sbc	r25, r25
     c06:	0e 94 75 08 	call	0x10ea	; 0x10ea <disp7s_qtyDisp_writeInt>
     c0a:	0d cf       	rjmp	.-486    	; 0xa26 <__stack+0x1c7>

00000c0c <disp7s_mux0_off>:
     c0c:	c4 98       	cbi	0x18, 4	; 24
     c0e:	08 95       	ret

00000c10 <disp7s_mux0_on>:
     c10:	c4 9a       	sbi	0x18, 4	; 24
     c12:	08 95       	ret

00000c14 <disp7s_mux1_off>:
     c14:	c3 98       	cbi	0x18, 3	; 24
     c16:	08 95       	ret

00000c18 <disp7s_mux1_on>:
     c18:	c3 9a       	sbi	0x18, 3	; 24
     c1a:	08 95       	ret

00000c1c <disp7s_mux2_off>:
     c1c:	c2 98       	cbi	0x18, 2	; 24
     c1e:	08 95       	ret

00000c20 <disp7s_mux2_on>:
     c20:	c2 9a       	sbi	0x18, 2	; 24
     c22:	08 95       	ret

00000c24 <disp7s_mux3_off>:
     c24:	c1 98       	cbi	0x18, 1	; 24
     c26:	08 95       	ret

00000c28 <disp7s_mux3_on>:
     c28:	c1 9a       	sbi	0x18, 1	; 24
     c2a:	08 95       	ret

00000c2c <disp7s_mux4_off>:
     c2c:	c0 98       	cbi	0x18, 0	; 24
     c2e:	08 95       	ret

00000c30 <disp7s_mux4_on>:
     c30:	c0 9a       	sbi	0x18, 0	; 24
     c32:	08 95       	ret

00000c34 <disp7s_init>:
     c34:	cf 93       	push	r28
     c36:	df 93       	push	r29
     c38:	10 92 df 02 	sts	0x02DF, r1	; 0x8002df <pulsonic+0x192>
     c3c:	10 92 e0 02 	sts	0x02E0, r1	; 0x8002e0 <pulsonic+0x193>
     c40:	10 92 dc 02 	sts	0x02DC, r1	; 0x8002dc <pulsonic+0x18f>
     c44:	10 92 dd 02 	sts	0x02DD, r1	; 0x8002dd <pulsonic+0x190>
     c48:	10 92 de 02 	sts	0x02DE, r1	; 0x8002de <pulsonic+0x191>
     c4c:	8f ef       	ldi	r24, 0xFF	; 255
     c4e:	8a bb       	out	0x1a, r24	; 26
     c50:	c8 e6       	ldi	r28, 0x68	; 104
     c52:	d0 e0       	ldi	r29, 0x00	; 0
     c54:	e8 81       	ld	r30, Y
     c56:	f9 81       	ldd	r31, Y+1	; 0x01
     c58:	09 95       	icall
     c5a:	24 96       	adiw	r28, 0x04	; 4
     c5c:	80 e0       	ldi	r24, 0x00	; 0
     c5e:	cc 37       	cpi	r28, 0x7C	; 124
     c60:	d8 07       	cpc	r29, r24
     c62:	c1 f7       	brne	.-16     	; 0xc54 <disp7s_init+0x20>
     c64:	bc 9a       	sbi	0x17, 4	; 23
     c66:	bb 9a       	sbi	0x17, 3	; 23
     c68:	ba 9a       	sbi	0x17, 2	; 23
     c6a:	b9 9a       	sbi	0x17, 1	; 23
     c6c:	b8 9a       	sbi	0x17, 0	; 23
     c6e:	df 91       	pop	r29
     c70:	cf 91       	pop	r28
     c72:	08 95       	ret

00000c74 <disp7s_setBlink_qty>:
     c74:	80 93 c1 00 	sts	0x00C1, r24	; 0x8000c1 <disp7s_blink_qty>
     c78:	10 92 c0 00 	sts	0x00C0, r1	; 0x8000c0 <count_ms+0x1>
     c7c:	10 92 bf 00 	sts	0x00BF, r1	; 0x8000bf <count_ms>
     c80:	10 92 be 00 	sts	0x00BE, r1	; 0x8000be <togg>
     c84:	08 95       	ret

00000c86 <disp7s_job>:
     c86:	ef 92       	push	r14
     c88:	ff 92       	push	r15
     c8a:	0f 93       	push	r16
     c8c:	1f 93       	push	r17
     c8e:	cf 93       	push	r28
     c90:	df 93       	push	r29
     c92:	e0 91 bd 00 	lds	r30, 0x00BD	; 0x8000bd <q.0>
     c96:	e1 50       	subi	r30, 0x01	; 1
     c98:	e7 fd       	sbrc	r30, 7
     c9a:	e4 e0       	ldi	r30, 0x04	; 4
     c9c:	24 e0       	ldi	r18, 0x04	; 4
     c9e:	e2 02       	muls	r30, r18
     ca0:	f0 01       	movw	r30, r0
     ca2:	11 24       	eor	r1, r1
     ca4:	e8 59       	subi	r30, 0x98	; 152
     ca6:	ff 4f       	sbci	r31, 0xFF	; 255
     ca8:	01 90       	ld	r0, Z+
     caa:	f0 81       	ld	r31, Z
     cac:	e0 2d       	mov	r30, r0
     cae:	09 95       	icall
     cb0:	e0 91 bd 00 	lds	r30, 0x00BD	; 0x8000bd <q.0>
     cb4:	e3 30       	cpi	r30, 0x03	; 3
     cb6:	0c f0       	brlt	.+2      	; 0xcba <disp7s_job+0x34>
     cb8:	58 c0       	rjmp	.+176    	; 0xd6a <disp7s_job+0xe4>
     cba:	80 91 c1 00 	lds	r24, 0x00C1	; 0x8000c1 <disp7s_blink_qty>
     cbe:	81 11       	cpse	r24, r1
     cc0:	08 c0       	rjmp	.+16     	; 0xcd2 <disp7s_job+0x4c>
     cc2:	0e 2e       	mov	r0, r30
     cc4:	00 0c       	add	r0, r0
     cc6:	ff 0b       	sbc	r31, r31
     cc8:	e4 52       	subi	r30, 0x24	; 36
     cca:	fd 4f       	sbci	r31, 0xFD	; 253
     ccc:	80 81       	ld	r24, Z
     cce:	8b bb       	out	0x1b, r24	; 27
     cd0:	1b c0       	rjmp	.+54     	; 0xd08 <disp7s_job+0x82>
     cd2:	80 91 bf 00 	lds	r24, 0x00BF	; 0x8000bf <count_ms>
     cd6:	90 91 c0 00 	lds	r25, 0x00C0	; 0x8000c0 <count_ms+0x1>
     cda:	01 96       	adiw	r24, 0x01	; 1
     cdc:	90 93 c0 00 	sts	0x00C0, r25	; 0x8000c0 <count_ms+0x1>
     ce0:	80 93 bf 00 	sts	0x00BF, r24	; 0x8000bf <count_ms>
     ce4:	c2 97       	sbiw	r24, 0x32	; 50
     ce6:	58 f0       	brcs	.+22     	; 0xcfe <disp7s_job+0x78>
     ce8:	90 91 be 00 	lds	r25, 0x00BE	; 0x8000be <togg>
     cec:	10 92 c0 00 	sts	0x00C0, r1	; 0x8000c0 <count_ms+0x1>
     cf0:	10 92 bf 00 	sts	0x00BF, r1	; 0x8000bf <count_ms>
     cf4:	81 e0       	ldi	r24, 0x01	; 1
     cf6:	91 11       	cpse	r25, r1
     cf8:	80 e0       	ldi	r24, 0x00	; 0
     cfa:	80 93 be 00 	sts	0x00BE, r24	; 0x8000be <togg>
     cfe:	80 91 be 00 	lds	r24, 0x00BE	; 0x8000be <togg>
     d02:	88 23       	and	r24, r24
     d04:	f1 f2       	breq	.-68     	; 0xcc2 <disp7s_job+0x3c>
     d06:	1b ba       	out	0x1b, r1	; 27
     d08:	20 91 bd 00 	lds	r18, 0x00BD	; 0x8000bd <q.0>
     d0c:	81 e0       	ldi	r24, 0x01	; 1
     d0e:	90 e0       	ldi	r25, 0x00	; 0
     d10:	7c 01       	movw	r14, r24
     d12:	02 c0       	rjmp	.+4      	; 0xd18 <disp7s_job+0x92>
     d14:	ee 0c       	add	r14, r14
     d16:	ff 1c       	adc	r15, r15
     d18:	2a 95       	dec	r18
     d1a:	e2 f7       	brpl	.-8      	; 0xd14 <disp7s_job+0x8e>
     d1c:	08 e6       	ldi	r16, 0x68	; 104
     d1e:	10 e0       	ldi	r17, 0x00	; 0
     d20:	d0 e0       	ldi	r29, 0x00	; 0
     d22:	c0 e0       	ldi	r28, 0x00	; 0
     d24:	c7 01       	movw	r24, r14
     d26:	0c 2e       	mov	r0, r28
     d28:	02 c0       	rjmp	.+4      	; 0xd2e <disp7s_job+0xa8>
     d2a:	95 95       	asr	r25
     d2c:	87 95       	ror	r24
     d2e:	0a 94       	dec	r0
     d30:	e2 f7       	brpl	.-8      	; 0xd2a <disp7s_job+0xa4>
     d32:	d8 01       	movw	r26, r16
     d34:	80 ff       	sbrs	r24, 0
     d36:	20 c0       	rjmp	.+64     	; 0xd78 <disp7s_job+0xf2>
     d38:	12 96       	adiw	r26, 0x02	; 2
     d3a:	ed 91       	ld	r30, X+
     d3c:	fc 91       	ld	r31, X
     d3e:	09 95       	icall
     d40:	21 96       	adiw	r28, 0x01	; 1
     d42:	0c 5f       	subi	r16, 0xFC	; 252
     d44:	1f 4f       	sbci	r17, 0xFF	; 255
     d46:	c5 30       	cpi	r28, 0x05	; 5
     d48:	d1 05       	cpc	r29, r1
     d4a:	61 f7       	brne	.-40     	; 0xd24 <disp7s_job+0x9e>
     d4c:	80 91 bd 00 	lds	r24, 0x00BD	; 0x8000bd <q.0>
     d50:	91 e0       	ldi	r25, 0x01	; 1
     d52:	98 0f       	add	r25, r24
     d54:	84 30       	cpi	r24, 0x04	; 4
     d56:	99 f0       	breq	.+38     	; 0xd7e <disp7s_job+0xf8>
     d58:	90 93 bd 00 	sts	0x00BD, r25	; 0x8000bd <q.0>
     d5c:	df 91       	pop	r29
     d5e:	cf 91       	pop	r28
     d60:	1f 91       	pop	r17
     d62:	0f 91       	pop	r16
     d64:	ff 90       	pop	r15
     d66:	ef 90       	pop	r14
     d68:	08 95       	ret
     d6a:	e3 50       	subi	r30, 0x03	; 3
     d6c:	0e 2e       	mov	r0, r30
     d6e:	00 0c       	add	r0, r0
     d70:	ff 0b       	sbc	r31, r31
     d72:	e1 52       	subi	r30, 0x21	; 33
     d74:	fd 4f       	sbci	r31, 0xFD	; 253
     d76:	aa cf       	rjmp	.-172    	; 0xccc <disp7s_job+0x46>
     d78:	ed 91       	ld	r30, X+
     d7a:	fc 91       	ld	r31, X
     d7c:	e0 cf       	rjmp	.-64     	; 0xd3e <disp7s_job+0xb8>
     d7e:	10 92 bd 00 	sts	0x00BD, r1	; 0x8000bd <q.0>
     d82:	ec cf       	rjmp	.-40     	; 0xd5c <disp7s_job+0xd6>

00000d84 <disp7s_off>:
     d84:	46 2f       	mov	r20, r22
     d86:	67 fd       	sbrc	r22, 7
     d88:	40 e0       	ldi	r20, 0x00	; 0
     d8a:	04 2e       	mov	r0, r20
     d8c:	00 0c       	add	r0, r0
     d8e:	55 0b       	sbc	r21, r21
     d90:	70 e0       	ldi	r23, 0x00	; 0
     d92:	60 e0       	ldi	r22, 0x00	; 0
     d94:	0c 94 c4 18 	jmp	0x3188	; 0x3188 <memset>

00000d98 <disp7s_modeDisp_off>:
     d98:	62 e0       	ldi	r22, 0x02	; 2
     d9a:	8f ed       	ldi	r24, 0xDF	; 223
     d9c:	92 e0       	ldi	r25, 0x02	; 2
     d9e:	0c 94 c2 06 	jmp	0xd84	; 0xd84 <disp7s_off>

00000da2 <disp7s_qtyDsp_off>:
     da2:	63 e0       	ldi	r22, 0x03	; 3
     da4:	8c ed       	ldi	r24, 0xDC	; 220
     da6:	92 e0       	ldi	r25, 0x02	; 2
     da8:	0c 94 c2 06 	jmp	0xd84	; 0xd84 <disp7s_off>

00000dac <disp7s_modeDisp_writeText_oil>:
     dac:	8c e5       	ldi	r24, 0x5C	; 92
     dae:	80 93 e0 02 	sts	0x02E0, r24	; 0x8002e0 <pulsonic+0x193>
     db2:	86 e1       	ldi	r24, 0x16	; 22
     db4:	80 93 df 02 	sts	0x02DF, r24	; 0x8002df <pulsonic+0x192>
     db8:	08 95       	ret

00000dba <disp7s_qtyDisp_writeText_OFF>:
     dba:	8f e3       	ldi	r24, 0x3F	; 63
     dbc:	80 93 de 02 	sts	0x02DE, r24	; 0x8002de <pulsonic+0x191>
     dc0:	81 e7       	ldi	r24, 0x71	; 113
     dc2:	80 93 dd 02 	sts	0x02DD, r24	; 0x8002dd <pulsonic+0x190>
     dc6:	80 93 dc 02 	sts	0x02DC, r24	; 0x8002dc <pulsonic+0x18f>
     dca:	08 95       	ret

00000dcc <disp7s_qtyDisp_writeText_FFF>:
     dcc:	81 e7       	ldi	r24, 0x71	; 113
     dce:	80 93 de 02 	sts	0x02DE, r24	; 0x8002de <pulsonic+0x191>
     dd2:	80 93 dd 02 	sts	0x02DD, r24	; 0x8002dd <pulsonic+0x190>
     dd6:	80 93 dc 02 	sts	0x02DC, r24	; 0x8002dc <pulsonic+0x18f>
     dda:	08 95       	ret

00000ddc <disp7s_qtyDisp_writeText_FLU>:
     ddc:	81 e7       	ldi	r24, 0x71	; 113
     dde:	80 93 de 02 	sts	0x02DE, r24	; 0x8002de <pulsonic+0x191>
     de2:	88 e3       	ldi	r24, 0x38	; 56
     de4:	80 93 dd 02 	sts	0x02DD, r24	; 0x8002dd <pulsonic+0x190>
     de8:	8e e3       	ldi	r24, 0x3E	; 62
     dea:	80 93 dc 02 	sts	0x02DC, r24	; 0x8002dc <pulsonic+0x18f>
     dee:	08 95       	ret

00000df0 <disp7s_qtyDisp_writeText_NO_OIL>:
     df0:	84 e5       	ldi	r24, 0x54	; 84
     df2:	80 93 e0 02 	sts	0x02E0, r24	; 0x8002e0 <pulsonic+0x193>
     df6:	8c e5       	ldi	r24, 0x5C	; 92
     df8:	80 93 df 02 	sts	0x02DF, r24	; 0x8002df <pulsonic+0x192>
     dfc:	8f e3       	ldi	r24, 0x3F	; 63
     dfe:	80 93 de 02 	sts	0x02DE, r24	; 0x8002de <pulsonic+0x191>
     e02:	80 e3       	ldi	r24, 0x30	; 48
     e04:	80 93 dd 02 	sts	0x02DD, r24	; 0x8002dd <pulsonic+0x190>
     e08:	88 e3       	ldi	r24, 0x38	; 56
     e0a:	80 93 dc 02 	sts	0x02DC, r24	; 0x8002dc <pulsonic+0x18f>
     e0e:	08 95       	ret

00000e10 <disp7s_write_f>:
     e10:	3f 92       	push	r3
     e12:	4f 92       	push	r4
     e14:	5f 92       	push	r5
     e16:	6f 92       	push	r6
     e18:	7f 92       	push	r7
     e1a:	8f 92       	push	r8
     e1c:	9f 92       	push	r9
     e1e:	af 92       	push	r10
     e20:	bf 92       	push	r11
     e22:	cf 92       	push	r12
     e24:	df 92       	push	r13
     e26:	ef 92       	push	r14
     e28:	ff 92       	push	r15
     e2a:	0f 93       	push	r16
     e2c:	1f 93       	push	r17
     e2e:	cf 93       	push	r28
     e30:	df 93       	push	r29
     e32:	cd b7       	in	r28, 0x3d	; 61
     e34:	de b7       	in	r29, 0x3e	; 62
     e36:	2e 97       	sbiw	r28, 0x0e	; 14
     e38:	0f b6       	in	r0, 0x3f	; 63
     e3a:	f8 94       	cli
     e3c:	de bf       	out	0x3e, r29	; 62
     e3e:	0f be       	out	0x3f, r0	; 63
     e40:	cd bf       	out	0x3d, r28	; 61
     e42:	5c 01       	movw	r10, r24
     e44:	86 2e       	mov	r8, r22
     e46:	f2 2e       	mov	r15, r18
     e48:	e3 2e       	mov	r14, r19
     e4a:	d4 2e       	mov	r13, r20
     e4c:	c5 2e       	mov	r12, r21
     e4e:	36 2e       	mov	r3, r22
     e50:	41 2c       	mov	r4, r1
     e52:	51 2c       	mov	r5, r1
     e54:	20 e8       	ldi	r18, 0x80	; 128
     e56:	62 2e       	mov	r6, r18
     e58:	3f e3       	ldi	r19, 0x3F	; 63
     e5a:	93 2e       	mov	r9, r19
     e5c:	3a 94       	dec	r3
     e5e:	8f ef       	ldi	r24, 0xFF	; 255
     e60:	38 12       	cpse	r3, r24
     e62:	8a c0       	rjmp	.+276    	; 0xf78 <disp7s_write_f+0x168>
     e64:	2f 2d       	mov	r18, r15
     e66:	3e 2d       	mov	r19, r14
     e68:	4d 2d       	mov	r20, r13
     e6a:	5c 2d       	mov	r21, r12
     e6c:	4b 86       	std	Y+11, r4	; 0x0b
     e6e:	5c 86       	std	Y+12, r5	; 0x0c
     e70:	6d 86       	std	Y+13, r6	; 0x0d
     e72:	9e 86       	std	Y+14, r9	; 0x0e
     e74:	6b 85       	ldd	r22, Y+11	; 0x0b
     e76:	7c 85       	ldd	r23, Y+12	; 0x0c
     e78:	8d 85       	ldd	r24, Y+13	; 0x0d
     e7a:	9e 85       	ldd	r25, Y+14	; 0x0e
     e7c:	0e 94 f3 16 	call	0x2de6	; 0x2de6 <__cmpsf2>
     e80:	18 16       	cp	r1, r24
     e82:	74 f0       	brlt	.+28     	; 0xea0 <disp7s_write_f+0x90>
     e84:	20 e0       	ldi	r18, 0x00	; 0
     e86:	30 e0       	ldi	r19, 0x00	; 0
     e88:	40 e8       	ldi	r20, 0x80	; 128
     e8a:	5f e3       	ldi	r21, 0x3F	; 63
     e8c:	6b 85       	ldd	r22, Y+11	; 0x0b
     e8e:	7c 85       	ldd	r23, Y+12	; 0x0c
     e90:	8d 85       	ldd	r24, Y+13	; 0x0d
     e92:	9e 85       	ldd	r25, Y+14	; 0x0e
     e94:	0e 94 86 16 	call	0x2d0c	; 0x2d0c <__subsf3>
     e98:	f6 2e       	mov	r15, r22
     e9a:	e7 2e       	mov	r14, r23
     e9c:	d8 2e       	mov	r13, r24
     e9e:	c9 2e       	mov	r12, r25
     ea0:	68 2d       	mov	r22, r8
     ea2:	c5 01       	movw	r24, r10
     ea4:	0e 94 c2 06 	call	0xd84	; 0xd84 <disp7s_off>
     ea8:	91 2c       	mov	r9, r1
     eaa:	61 2c       	mov	r6, r1
     eac:	51 2c       	mov	r5, r1
     eae:	80 e8       	ldi	r24, 0x80	; 128
     eb0:	48 2e       	mov	r4, r24
     eb2:	9f e3       	ldi	r25, 0x3F	; 63
     eb4:	39 2e       	mov	r3, r25
     eb6:	89 14       	cp	r8, r9
     eb8:	94 f1       	brlt	.+100    	; 0xf1e <disp7s_write_f+0x10e>
     eba:	26 2d       	mov	r18, r6
     ebc:	35 2d       	mov	r19, r5
     ebe:	44 2d       	mov	r20, r4
     ec0:	53 2d       	mov	r21, r3
     ec2:	fb 86       	std	Y+11, r15	; 0x0b
     ec4:	ec 86       	std	Y+12, r14	; 0x0c
     ec6:	dd 86       	std	Y+13, r13	; 0x0d
     ec8:	ce 86       	std	Y+14, r12	; 0x0e
     eca:	6b 85       	ldd	r22, Y+11	; 0x0b
     ecc:	7c 85       	ldd	r23, Y+12	; 0x0c
     ece:	8d 85       	ldd	r24, Y+13	; 0x0d
     ed0:	9e 85       	ldd	r25, Y+14	; 0x0e
     ed2:	0e 94 f3 16 	call	0x2de6	; 0x2de6 <__cmpsf2>
     ed6:	87 ff       	sbrs	r24, 7
     ed8:	6f c0       	rjmp	.+222    	; 0xfb8 <disp7s_write_f+0x1a8>
     eda:	98 14       	cp	r9, r8
     edc:	0c f0       	brlt	.+2      	; 0xee0 <disp7s_write_f+0xd0>
     ede:	5e c0       	rjmp	.+188    	; 0xf9c <disp7s_write_f+0x18c>
     ee0:	20 e0       	ldi	r18, 0x00	; 0
     ee2:	30 e0       	ldi	r19, 0x00	; 0
     ee4:	40 e2       	ldi	r20, 0x20	; 32
     ee6:	51 e4       	ldi	r21, 0x41	; 65
     ee8:	6b 85       	ldd	r22, Y+11	; 0x0b
     eea:	7c 85       	ldd	r23, Y+12	; 0x0c
     eec:	8d 85       	ldd	r24, Y+13	; 0x0d
     eee:	9e 85       	ldd	r25, Y+14	; 0x0e
     ef0:	0e 94 57 18 	call	0x30ae	; 0x30ae <__mulsf3>
     ef4:	6b 87       	std	Y+11, r22	; 0x0b
     ef6:	7c 87       	std	Y+12, r23	; 0x0c
     ef8:	8d 87       	std	Y+13, r24	; 0x0d
     efa:	9e 87       	std	Y+14, r25	; 0x0e
     efc:	6b 85       	ldd	r22, Y+11	; 0x0b
     efe:	7c 85       	ldd	r23, Y+12	; 0x0c
     f00:	8d 85       	ldd	r24, Y+13	; 0x0d
     f02:	9e 85       	ldd	r25, Y+14	; 0x0e
     f04:	0e 94 6a 17 	call	0x2ed4	; 0x2ed4 <__fixsfsi>
     f08:	8b 01       	movw	r16, r22
     f0a:	91 10       	cpse	r9, r1
     f0c:	03 c0       	rjmp	.+6      	; 0xf14 <disp7s_write_f+0x104>
     f0e:	8f e3       	ldi	r24, 0x3F	; 63
     f10:	f5 01       	movw	r30, r10
     f12:	81 83       	std	Z+1, r24	; 0x01
     f14:	f5 01       	movw	r30, r10
     f16:	81 81       	ldd	r24, Z+1	; 0x01
     f18:	80 68       	ori	r24, 0x80	; 128
     f1a:	81 83       	std	Z+1, r24	; 0x01
     f1c:	79 2c       	mov	r7, r9
     f1e:	4a e0       	ldi	r20, 0x0A	; 10
     f20:	be 01       	movw	r22, r28
     f22:	6f 5f       	subi	r22, 0xFF	; 255
     f24:	7f 4f       	sbci	r23, 0xFF	; 255
     f26:	c8 01       	movw	r24, r16
     f28:	0e 94 cb 18 	call	0x3196	; 0x3196 <__itoa_ncheck>
     f2c:	80 e0       	ldi	r24, 0x00	; 0
     f2e:	97 2d       	mov	r25, r7
     f30:	98 1b       	sub	r25, r24
     f32:	e1 e0       	ldi	r30, 0x01	; 1
     f34:	f0 e0       	ldi	r31, 0x00	; 0
     f36:	ec 0f       	add	r30, r28
     f38:	fd 1f       	adc	r31, r29
     f3a:	e8 0f       	add	r30, r24
     f3c:	f1 1d       	adc	r31, r1
     f3e:	87 fd       	sbrc	r24, 7
     f40:	fa 95       	dec	r31
     f42:	e0 81       	ld	r30, Z
     f44:	e1 11       	cpse	r30, r1
     f46:	4c c0       	rjmp	.+152    	; 0xfe0 <disp7s_write_f+0x1d0>
     f48:	2e 96       	adiw	r28, 0x0e	; 14
     f4a:	0f b6       	in	r0, 0x3f	; 63
     f4c:	f8 94       	cli
     f4e:	de bf       	out	0x3e, r29	; 62
     f50:	0f be       	out	0x3f, r0	; 63
     f52:	cd bf       	out	0x3d, r28	; 61
     f54:	df 91       	pop	r29
     f56:	cf 91       	pop	r28
     f58:	1f 91       	pop	r17
     f5a:	0f 91       	pop	r16
     f5c:	ff 90       	pop	r15
     f5e:	ef 90       	pop	r14
     f60:	df 90       	pop	r13
     f62:	cf 90       	pop	r12
     f64:	bf 90       	pop	r11
     f66:	af 90       	pop	r10
     f68:	9f 90       	pop	r9
     f6a:	8f 90       	pop	r8
     f6c:	7f 90       	pop	r7
     f6e:	6f 90       	pop	r6
     f70:	5f 90       	pop	r5
     f72:	4f 90       	pop	r4
     f74:	3f 90       	pop	r3
     f76:	08 95       	ret
     f78:	20 e0       	ldi	r18, 0x00	; 0
     f7a:	30 e0       	ldi	r19, 0x00	; 0
     f7c:	40 e2       	ldi	r20, 0x20	; 32
     f7e:	51 e4       	ldi	r21, 0x41	; 65
     f80:	4b 86       	std	Y+11, r4	; 0x0b
     f82:	5c 86       	std	Y+12, r5	; 0x0c
     f84:	6d 86       	std	Y+13, r6	; 0x0d
     f86:	9e 86       	std	Y+14, r9	; 0x0e
     f88:	6b 85       	ldd	r22, Y+11	; 0x0b
     f8a:	7c 85       	ldd	r23, Y+12	; 0x0c
     f8c:	8d 85       	ldd	r24, Y+13	; 0x0d
     f8e:	9e 85       	ldd	r25, Y+14	; 0x0e
     f90:	0e 94 57 18 	call	0x30ae	; 0x30ae <__mulsf3>
     f94:	2b 01       	movw	r4, r22
     f96:	68 2e       	mov	r6, r24
     f98:	99 2e       	mov	r9, r25
     f9a:	60 cf       	rjmp	.-320    	; 0xe5c <disp7s_write_f+0x4c>
     f9c:	fb 86       	std	Y+11, r15	; 0x0b
     f9e:	ec 86       	std	Y+12, r14	; 0x0c
     fa0:	dd 86       	std	Y+13, r13	; 0x0d
     fa2:	ce 86       	std	Y+14, r12	; 0x0e
     fa4:	6b 85       	ldd	r22, Y+11	; 0x0b
     fa6:	7c 85       	ldd	r23, Y+12	; 0x0c
     fa8:	8d 85       	ldd	r24, Y+13	; 0x0d
     faa:	9e 85       	ldd	r25, Y+14	; 0x0e
     fac:	0e 94 6a 17 	call	0x2ed4	; 0x2ed4 <__fixsfsi>
     fb0:	8b 01       	movw	r16, r22
     fb2:	77 24       	eor	r7, r7
     fb4:	7a 94       	dec	r7
     fb6:	79 0c       	add	r7, r9
     fb8:	20 e0       	ldi	r18, 0x00	; 0
     fba:	30 e0       	ldi	r19, 0x00	; 0
     fbc:	40 e2       	ldi	r20, 0x20	; 32
     fbe:	51 e4       	ldi	r21, 0x41	; 65
     fc0:	6b 86       	std	Y+11, r6	; 0x0b
     fc2:	5c 86       	std	Y+12, r5	; 0x0c
     fc4:	4d 86       	std	Y+13, r4	; 0x0d
     fc6:	3e 86       	std	Y+14, r3	; 0x0e
     fc8:	6b 85       	ldd	r22, Y+11	; 0x0b
     fca:	7c 85       	ldd	r23, Y+12	; 0x0c
     fcc:	8d 85       	ldd	r24, Y+13	; 0x0d
     fce:	9e 85       	ldd	r25, Y+14	; 0x0e
     fd0:	0e 94 57 18 	call	0x30ae	; 0x30ae <__mulsf3>
     fd4:	66 2e       	mov	r6, r22
     fd6:	57 2e       	mov	r5, r23
     fd8:	48 2e       	mov	r4, r24
     fda:	39 2e       	mov	r3, r25
     fdc:	93 94       	inc	r9
     fde:	6b cf       	rjmp	.-298    	; 0xeb6 <disp7s_write_f+0xa6>
     fe0:	d5 01       	movw	r26, r10
     fe2:	a9 0f       	add	r26, r25
     fe4:	b1 1d       	adc	r27, r1
     fe6:	97 fd       	sbrc	r25, 7
     fe8:	ba 95       	dec	r27
     fea:	0e 2e       	mov	r0, r30
     fec:	00 0c       	add	r0, r0
     fee:	ff 0b       	sbc	r31, r31
     ff0:	ea 59       	subi	r30, 0x9A	; 154
     ff2:	ff 4f       	sbci	r31, 0xFF	; 255
     ff4:	9c 91       	ld	r25, X
     ff6:	20 81       	ld	r18, Z
     ff8:	92 2b       	or	r25, r18
     ffa:	9c 93       	st	X, r25
     ffc:	8f 5f       	subi	r24, 0xFF	; 255
     ffe:	97 cf       	rjmp	.-210    	; 0xf2e <disp7s_write_f+0x11e>

00001000 <disp7s_qtyDisp_writeFloat>:
    1000:	9b 01       	movw	r18, r22
    1002:	ac 01       	movw	r20, r24
    1004:	63 e0       	ldi	r22, 0x03	; 3
    1006:	8c ed       	ldi	r24, 0xDC	; 220
    1008:	92 e0       	ldi	r25, 0x02	; 2
    100a:	0c 94 08 07 	jmp	0xe10	; 0xe10 <disp7s_write_f>

0000100e <disp7s_modeDisp_writeFloat>:
    100e:	9b 01       	movw	r18, r22
    1010:	ac 01       	movw	r20, r24
    1012:	62 e0       	ldi	r22, 0x02	; 2
    1014:	8f ed       	ldi	r24, 0xDF	; 223
    1016:	92 e0       	ldi	r25, 0x02	; 2
    1018:	0c 94 08 07 	jmp	0xe10	; 0xe10 <disp7s_write_f>

0000101c <disp7s_write_i>:
    101c:	cf 92       	push	r12
    101e:	df 92       	push	r13
    1020:	ef 92       	push	r14
    1022:	ff 92       	push	r15
    1024:	1f 93       	push	r17
    1026:	cf 93       	push	r28
    1028:	df 93       	push	r29
    102a:	cd b7       	in	r28, 0x3d	; 61
    102c:	de b7       	in	r29, 0x3e	; 62
    102e:	2a 97       	sbiw	r28, 0x0a	; 10
    1030:	0f b6       	in	r0, 0x3f	; 63
    1032:	f8 94       	cli
    1034:	de bf       	out	0x3e, r29	; 62
    1036:	0f be       	out	0x3f, r0	; 63
    1038:	cd bf       	out	0x3d, r28	; 61
    103a:	7c 01       	movw	r14, r24
    103c:	16 2f       	mov	r17, r22
    103e:	ca 01       	movw	r24, r20
    1040:	46 2f       	mov	r20, r22
    1042:	21 e0       	ldi	r18, 0x01	; 1
    1044:	30 e0       	ldi	r19, 0x00	; 0
    1046:	5a e0       	ldi	r21, 0x0A	; 10
    1048:	41 50       	subi	r20, 0x01	; 1
    104a:	c0 f5       	brcc	.+112    	; 0x10bc <disp7s_write_i+0xa0>
    104c:	82 17       	cp	r24, r18
    104e:	93 07       	cpc	r25, r19
    1050:	14 f0       	brlt	.+4      	; 0x1056 <disp7s_write_i+0x3a>
    1052:	c9 01       	movw	r24, r18
    1054:	01 97       	sbiw	r24, 0x01	; 1
    1056:	4a e0       	ldi	r20, 0x0A	; 10
    1058:	9e 01       	movw	r18, r28
    105a:	2f 5f       	subi	r18, 0xFF	; 255
    105c:	3f 4f       	sbci	r19, 0xFF	; 255
    105e:	69 01       	movw	r12, r18
    1060:	b9 01       	movw	r22, r18
    1062:	0e 94 cb 18 	call	0x3196	; 0x3196 <__itoa_ncheck>
    1066:	41 2f       	mov	r20, r17
    1068:	17 fd       	sbrc	r17, 7
    106a:	40 e0       	ldi	r20, 0x00	; 0
    106c:	04 2e       	mov	r0, r20
    106e:	00 0c       	add	r0, r0
    1070:	55 0b       	sbc	r21, r21
    1072:	70 e0       	ldi	r23, 0x00	; 0
    1074:	60 e0       	ldi	r22, 0x00	; 0
    1076:	c7 01       	movw	r24, r14
    1078:	0e 94 c4 18 	call	0x3188	; 0x3188 <memset>
    107c:	f6 01       	movw	r30, r12
    107e:	01 90       	ld	r0, Z+
    1080:	00 20       	and	r0, r0
    1082:	e9 f7       	brne	.-6      	; 0x107e <disp7s_write_i+0x62>
    1084:	ec 19       	sub	r30, r12
    1086:	8e ef       	ldi	r24, 0xFE	; 254
    1088:	8e 0f       	add	r24, r30
    108a:	90 e0       	ldi	r25, 0x00	; 0
    108c:	28 2f       	mov	r18, r24
    108e:	29 1b       	sub	r18, r25
    1090:	f6 01       	movw	r30, r12
    1092:	e9 0f       	add	r30, r25
    1094:	f1 1d       	adc	r31, r1
    1096:	97 fd       	sbrc	r25, 7
    1098:	fa 95       	dec	r31
    109a:	e0 81       	ld	r30, Z
    109c:	e1 11       	cpse	r30, r1
    109e:	15 c0       	rjmp	.+42     	; 0x10ca <disp7s_write_i+0xae>
    10a0:	2a 96       	adiw	r28, 0x0a	; 10
    10a2:	0f b6       	in	r0, 0x3f	; 63
    10a4:	f8 94       	cli
    10a6:	de bf       	out	0x3e, r29	; 62
    10a8:	0f be       	out	0x3f, r0	; 63
    10aa:	cd bf       	out	0x3d, r28	; 61
    10ac:	df 91       	pop	r29
    10ae:	cf 91       	pop	r28
    10b0:	1f 91       	pop	r17
    10b2:	ff 90       	pop	r15
    10b4:	ef 90       	pop	r14
    10b6:	df 90       	pop	r13
    10b8:	cf 90       	pop	r12
    10ba:	08 95       	ret
    10bc:	b9 01       	movw	r22, r18
    10be:	56 9f       	mul	r21, r22
    10c0:	90 01       	movw	r18, r0
    10c2:	57 9f       	mul	r21, r23
    10c4:	30 0d       	add	r19, r0
    10c6:	11 24       	eor	r1, r1
    10c8:	bf cf       	rjmp	.-130    	; 0x1048 <disp7s_write_i+0x2c>
    10ca:	d7 01       	movw	r26, r14
    10cc:	a2 0f       	add	r26, r18
    10ce:	b1 1d       	adc	r27, r1
    10d0:	27 fd       	sbrc	r18, 7
    10d2:	ba 95       	dec	r27
    10d4:	0e 2e       	mov	r0, r30
    10d6:	00 0c       	add	r0, r0
    10d8:	ff 0b       	sbc	r31, r31
    10da:	ea 59       	subi	r30, 0x9A	; 154
    10dc:	ff 4f       	sbci	r31, 0xFF	; 255
    10de:	2c 91       	ld	r18, X
    10e0:	30 81       	ld	r19, Z
    10e2:	23 2b       	or	r18, r19
    10e4:	2c 93       	st	X, r18
    10e6:	9f 5f       	subi	r25, 0xFF	; 255
    10e8:	d1 cf       	rjmp	.-94     	; 0x108c <disp7s_write_i+0x70>

000010ea <disp7s_qtyDisp_writeInt>:
    10ea:	ac 01       	movw	r20, r24
    10ec:	63 e0       	ldi	r22, 0x03	; 3
    10ee:	8c ed       	ldi	r24, 0xDC	; 220
    10f0:	92 e0       	ldi	r25, 0x02	; 2
    10f2:	0c 94 0e 08 	jmp	0x101c	; 0x101c <disp7s_write_i>

000010f6 <disp7s_modeDisp_writeInt>:
    10f6:	ac 01       	movw	r20, r24
    10f8:	62 e0       	ldi	r22, 0x02	; 2
    10fa:	8f ed       	ldi	r24, 0xDF	; 223
    10fc:	92 e0       	ldi	r25, 0x02	; 2
    10fe:	0c 94 0e 08 	jmp	0x101c	; 0x101c <disp7s_write_i>

00001102 <disp7s_qtyDisp_writeText_20_3RAYAS>:
    1102:	84 e1       	ldi	r24, 0x14	; 20
    1104:	90 e0       	ldi	r25, 0x00	; 0
    1106:	0e 94 7b 08 	call	0x10f6	; 0x10f6 <disp7s_modeDisp_writeInt>
    110a:	80 e4       	ldi	r24, 0x40	; 64
    110c:	80 93 de 02 	sts	0x02DE, r24	; 0x8002de <pulsonic+0x191>
    1110:	80 93 dd 02 	sts	0x02DD, r24	; 0x8002dd <pulsonic+0x190>
    1114:	80 93 dc 02 	sts	0x02DC, r24	; 0x8002dc <pulsonic+0x18f>
    1118:	08 95       	ret

0000111a <disp7s_qtyDisp_writeText_NO_HOME_SENSOR>:
    111a:	85 e1       	ldi	r24, 0x15	; 21
    111c:	90 e0       	ldi	r25, 0x00	; 0
    111e:	0e 94 7b 08 	call	0x10f6	; 0x10f6 <disp7s_modeDisp_writeInt>
    1122:	89 e7       	ldi	r24, 0x79	; 121
    1124:	80 93 de 02 	sts	0x02DE, r24	; 0x8002de <pulsonic+0x191>
    1128:	80 e5       	ldi	r24, 0x50	; 80
    112a:	80 93 dd 02 	sts	0x02DD, r24	; 0x8002dd <pulsonic+0x190>
    112e:	80 93 dc 02 	sts	0x02DC, r24	; 0x8002dc <pulsonic+0x18f>
    1132:	08 95       	ret

00001134 <flushAllMode_cmd>:
    1134:	81 11       	cpse	r24, r1
    1136:	1b c0       	rjmp	.+54     	; 0x116e <flushAllMode_cmd+0x3a>
    1138:	0e 94 cc 06 	call	0xd98	; 0xd98 <disp7s_modeDisp_off>
    113c:	0e 94 ee 06 	call	0xddc	; 0xddc <disp7s_qtyDisp_writeText_FLU>
    1140:	0e 94 48 0f 	call	0x1e90	; 0x1e90 <mpap_get_numSteps_current>
    1144:	68 ec       	ldi	r22, 0xC8	; 200
    1146:	70 e0       	ldi	r23, 0x00	; 0
    1148:	0e 94 5e 16 	call	0x2cbc	; 0x2cbc <__divmodhi4>
    114c:	89 2b       	or	r24, r25
    114e:	49 f4       	brne	.+18     	; 0x1162 <flushAllMode_cmd+0x2e>
    1150:	60 93 c3 00 	sts	0x00C3, r22	; 0x8000c3 <numNozzle>
    1154:	82 e0       	ldi	r24, 0x02	; 2
    1156:	80 93 c2 00 	sts	0x00C2, r24	; 0x8000c2 <flushAllMode>
    115a:	0e 94 2d 13 	call	0x265a	; 0x265a <pump_stop>
    115e:	0c 94 2e 0f 	jmp	0x1e5c	; 0x1e5c <mpap_stall>
    1162:	6f 5f       	subi	r22, 0xFF	; 255
    1164:	62 31       	cpi	r22, 0x12	; 18
    1166:	a4 f3       	brlt	.-24     	; 0x1150 <flushAllMode_cmd+0x1c>
    1168:	10 92 c3 00 	sts	0x00C3, r1	; 0x8000c3 <numNozzle>
    116c:	f3 cf       	rjmp	.-26     	; 0x1154 <flushAllMode_cmd+0x20>
    116e:	81 30       	cpi	r24, 0x01	; 1
    1170:	a1 f7       	brne	.-24     	; 0x115a <flushAllMode_cmd+0x26>
    1172:	10 92 c2 00 	sts	0x00C2, r1	; 0x8000c2 <flushAllMode>
    1176:	f1 cf       	rjmp	.-30     	; 0x115a <flushAllMode_cmd+0x26>

00001178 <flushAllMode_job>:
    1178:	80 91 c2 00 	lds	r24, 0x00C2	; 0x8000c2 <flushAllMode>
    117c:	18 16       	cp	r1, r24
    117e:	94 f4       	brge	.+36     	; 0x11a4 <flushAllMode_job+0x2c>
    1180:	0e 94 9d 10 	call	0x213a	; 0x213a <mpap_isIdle>
    1184:	88 23       	and	r24, r24
    1186:	71 f0       	breq	.+28     	; 0x11a4 <flushAllMode_job+0x2c>
    1188:	80 91 c2 00 	lds	r24, 0x00C2	; 0x8000c2 <flushAllMode>
    118c:	81 30       	cpi	r24, 0x01	; 1
    118e:	71 f4       	brne	.+28     	; 0x11ac <flushAllMode_job+0x34>
    1190:	80 91 c3 00 	lds	r24, 0x00C3	; 0x8000c3 <numNozzle>
    1194:	8f 5f       	subi	r24, 0xFF	; 255
    1196:	82 31       	cpi	r24, 0x12	; 18
    1198:	34 f4       	brge	.+12     	; 0x11a6 <flushAllMode_job+0x2e>
    119a:	80 93 c3 00 	sts	0x00C3, r24	; 0x8000c3 <numNozzle>
    119e:	82 e0       	ldi	r24, 0x02	; 2
    11a0:	80 93 c2 00 	sts	0x00C2, r24	; 0x8000c2 <flushAllMode>
    11a4:	08 95       	ret
    11a6:	10 92 c3 00 	sts	0x00C3, r1	; 0x8000c3 <numNozzle>
    11aa:	f9 cf       	rjmp	.-14     	; 0x119e <flushAllMode_job+0x26>
    11ac:	82 30       	cpi	r24, 0x02	; 2
    11ae:	51 f4       	brne	.+20     	; 0x11c4 <flushAllMode_job+0x4c>
    11b0:	80 91 c3 00 	lds	r24, 0x00C3	; 0x8000c3 <numNozzle>
    11b4:	0e 94 75 11 	call	0x22ea	; 0x22ea <nozzle_setPosition>
    11b8:	88 23       	and	r24, r24
    11ba:	a1 f3       	breq	.-24     	; 0x11a4 <flushAllMode_job+0x2c>
    11bc:	80 91 c2 00 	lds	r24, 0x00C2	; 0x8000c2 <flushAllMode>
    11c0:	8f 5f       	subi	r24, 0xFF	; 255
    11c2:	ee cf       	rjmp	.-36     	; 0x11a0 <flushAllMode_job+0x28>
    11c4:	83 30       	cpi	r24, 0x03	; 3
    11c6:	a9 f4       	brne	.+42     	; 0x11f2 <flushAllMode_job+0x7a>
    11c8:	0e 94 9d 10 	call	0x213a	; 0x213a <mpap_isIdle>
    11cc:	88 23       	and	r24, r24
    11ce:	51 f3       	breq	.-44     	; 0x11a4 <flushAllMode_job+0x2c>
    11d0:	80 91 c3 00 	lds	r24, 0x00C3	; 0x8000c3 <numNozzle>
    11d4:	08 2e       	mov	r0, r24
    11d6:	00 0c       	add	r0, r0
    11d8:	99 0b       	sbc	r25, r25
    11da:	0e 94 39 11 	call	0x2272	; 0x2272 <nozzle_isEnabled>
    11de:	90 91 c2 00 	lds	r25, 0x00C2	; 0x8000c2 <flushAllMode>
    11e2:	88 23       	and	r24, r24
    11e4:	21 f0       	breq	.+8      	; 0x11ee <flushAllMode_job+0x76>
    11e6:	9f 5f       	subi	r25, 0xFF	; 255
    11e8:	90 93 c2 00 	sts	0x00C2, r25	; 0x8000c2 <flushAllMode>
    11ec:	08 95       	ret
    11ee:	92 50       	subi	r25, 0x02	; 2
    11f0:	fb cf       	rjmp	.-10     	; 0x11e8 <flushAllMode_job+0x70>
    11f2:	84 30       	cpi	r24, 0x04	; 4
    11f4:	49 f4       	brne	.+18     	; 0x1208 <flushAllMode_job+0x90>
    11f6:	0e 94 9d 10 	call	0x213a	; 0x213a <mpap_isIdle>
    11fa:	88 23       	and	r24, r24
    11fc:	99 f2       	breq	.-90     	; 0x11a4 <flushAllMode_job+0x2c>
    11fe:	81 e0       	ldi	r24, 0x01	; 1
    1200:	90 e0       	ldi	r25, 0x00	; 0
    1202:	0e 94 23 13 	call	0x2646	; 0x2646 <pump_setTick>
    1206:	da cf       	rjmp	.-76     	; 0x11bc <flushAllMode_job+0x44>
    1208:	85 30       	cpi	r24, 0x05	; 5
    120a:	61 f6       	brne	.-104    	; 0x11a4 <flushAllMode_job+0x2c>
    120c:	0e 94 a1 13 	call	0x2742	; 0x2742 <pump_isIdle>
    1210:	88 23       	and	r24, r24
    1212:	41 f2       	breq	.-112    	; 0x11a4 <flushAllMode_job+0x2c>
    1214:	81 e0       	ldi	r24, 0x01	; 1
    1216:	c4 cf       	rjmp	.-120    	; 0x11a0 <flushAllMode_job+0x28>

00001218 <flushAtNozzle_setNozzle>:
    1218:	80 93 c6 00 	sts	0x00C6, r24	; 0x8000c6 <flushAtNozzle>
    121c:	08 95       	ret

0000121e <flushAtNozzle_cmd>:
    121e:	81 11       	cpse	r24, r1
    1220:	0f c0       	rjmp	.+30     	; 0x1240 <flushAtNozzle_cmd+0x22>
    1222:	0e 94 ee 06 	call	0xddc	; 0xddc <disp7s_qtyDisp_writeText_FLU>
    1226:	81 e0       	ldi	r24, 0x01	; 1
    1228:	80 93 c7 00 	sts	0x00C7, r24	; 0x8000c7 <flushAtNozzle+0x1>
    122c:	0e 94 72 11 	call	0x22e4	; 0x22e4 <nozzle_setPosition_reset>
    1230:	10 92 c5 00 	sts	0x00C5, r1	; 0x8000c5 <counterTicks_debug+0x1>
    1234:	10 92 c4 00 	sts	0x00C4, r1	; 0x8000c4 <counterTicks_debug>
    1238:	0e 94 2d 13 	call	0x265a	; 0x265a <pump_stop>
    123c:	0c 94 2e 0f 	jmp	0x1e5c	; 0x1e5c <mpap_stall>
    1240:	81 30       	cpi	r24, 0x01	; 1
    1242:	d1 f7       	brne	.-12     	; 0x1238 <flushAtNozzle_cmd+0x1a>
    1244:	10 92 c7 00 	sts	0x00C7, r1	; 0x8000c7 <flushAtNozzle+0x1>
    1248:	f7 cf       	rjmp	.-18     	; 0x1238 <flushAtNozzle_cmd+0x1a>

0000124a <flushAtNozzle_job>:
    124a:	80 91 c7 00 	lds	r24, 0x00C7	; 0x8000c7 <flushAtNozzle+0x1>
    124e:	18 16       	cp	r1, r24
    1250:	5c f4       	brge	.+22     	; 0x1268 <flushAtNozzle_job+0x1e>
    1252:	81 30       	cpi	r24, 0x01	; 1
    1254:	51 f4       	brne	.+20     	; 0x126a <flushAtNozzle_job+0x20>
    1256:	0e 94 9d 10 	call	0x213a	; 0x213a <mpap_isIdle>
    125a:	88 23       	and	r24, r24
    125c:	29 f0       	breq	.+10     	; 0x1268 <flushAtNozzle_job+0x1e>
    125e:	80 91 c7 00 	lds	r24, 0x00C7	; 0x8000c7 <flushAtNozzle+0x1>
    1262:	8f 5f       	subi	r24, 0xFF	; 255
    1264:	80 93 c7 00 	sts	0x00C7, r24	; 0x8000c7 <flushAtNozzle+0x1>
    1268:	08 95       	ret
    126a:	82 30       	cpi	r24, 0x02	; 2
    126c:	71 f4       	brne	.+28     	; 0x128a <flushAtNozzle_job+0x40>
    126e:	80 91 c6 00 	lds	r24, 0x00C6	; 0x8000c6 <flushAtNozzle>
    1272:	08 2e       	mov	r0, r24
    1274:	00 0c       	add	r0, r0
    1276:	99 0b       	sbc	r25, r25
    1278:	0e 94 39 11 	call	0x2272	; 0x2272 <nozzle_isEnabled>
    127c:	88 23       	and	r24, r24
    127e:	a1 f3       	breq	.-24     	; 0x1268 <flushAtNozzle_job+0x1e>
    1280:	80 91 c6 00 	lds	r24, 0x00C6	; 0x8000c6 <flushAtNozzle>
    1284:	0e 94 75 11 	call	0x22ea	; 0x22ea <nozzle_setPosition>
    1288:	e8 cf       	rjmp	.-48     	; 0x125a <flushAtNozzle_job+0x10>
    128a:	83 30       	cpi	r24, 0x03	; 3
    128c:	b9 f4       	brne	.+46     	; 0x12bc <flushAtNozzle_job+0x72>
    128e:	0e 94 9d 10 	call	0x213a	; 0x213a <mpap_isIdle>
    1292:	88 23       	and	r24, r24
    1294:	49 f3       	breq	.-46     	; 0x1268 <flushAtNozzle_job+0x1e>
    1296:	81 e0       	ldi	r24, 0x01	; 1
    1298:	90 e0       	ldi	r25, 0x00	; 0
    129a:	0e 94 23 13 	call	0x2646	; 0x2646 <pump_setTick>
    129e:	80 91 c7 00 	lds	r24, 0x00C7	; 0x8000c7 <flushAtNozzle+0x1>
    12a2:	8f 5f       	subi	r24, 0xFF	; 255
    12a4:	80 93 c7 00 	sts	0x00C7, r24	; 0x8000c7 <flushAtNozzle+0x1>
    12a8:	80 91 c4 00 	lds	r24, 0x00C4	; 0x8000c4 <counterTicks_debug>
    12ac:	90 91 c5 00 	lds	r25, 0x00C5	; 0x8000c5 <counterTicks_debug+0x1>
    12b0:	01 96       	adiw	r24, 0x01	; 1
    12b2:	90 93 c5 00 	sts	0x00C5, r25	; 0x8000c5 <counterTicks_debug+0x1>
    12b6:	80 93 c4 00 	sts	0x00C4, r24	; 0x8000c4 <counterTicks_debug>
    12ba:	08 95       	ret
    12bc:	84 30       	cpi	r24, 0x04	; 4
    12be:	a1 f6       	brne	.-88     	; 0x1268 <flushAtNozzle_job+0x1e>
    12c0:	0e 94 a1 13 	call	0x2742	; 0x2742 <pump_isIdle>
    12c4:	88 23       	and	r24, r24
    12c6:	81 f2       	breq	.-96     	; 0x1268 <flushAtNozzle_job+0x1e>
    12c8:	80 91 c7 00 	lds	r24, 0x00C7	; 0x8000c7 <flushAtNozzle+0x1>
    12cc:	81 50       	subi	r24, 0x01	; 1
    12ce:	ca cf       	rjmp	.-108    	; 0x1264 <flushAtNozzle_job+0x1a>

000012d0 <keyRead_pin_key0>:
    12d0:	83 b3       	in	r24, 0x13	; 19
    12d2:	82 95       	swap	r24
    12d4:	81 70       	andi	r24, 0x01	; 1
    12d6:	08 95       	ret

000012d8 <keyRead_pin_key1>:
    12d8:	83 b3       	in	r24, 0x13	; 19
    12da:	85 fb       	bst	r24, 5
    12dc:	88 27       	eor	r24, r24
    12de:	80 f9       	bld	r24, 0
    12e0:	08 95       	ret

000012e2 <keyRead_pin_key2>:
    12e2:	83 b3       	in	r24, 0x13	; 19
    12e4:	86 fb       	bst	r24, 6
    12e6:	88 27       	eor	r24, r24
    12e8:	80 f9       	bld	r24, 0
    12ea:	08 95       	ret

000012ec <keyRead_pin_key3>:
    12ec:	83 b3       	in	r24, 0x13	; 19
    12ee:	88 1f       	adc	r24, r24
    12f0:	88 27       	eor	r24, r24
    12f2:	88 1f       	adc	r24, r24
    12f4:	08 95       	ret

000012f6 <keyRead_pin_key4>:
    12f6:	80 b3       	in	r24, 0x10	; 16
    12f8:	82 fb       	bst	r24, 2
    12fa:	88 27       	eor	r24, r24
    12fc:	80 f9       	bld	r24, 0
    12fe:	08 95       	ret

00001300 <ikb_setKeyProp>:
    1300:	cf 93       	push	r28
    1302:	df 93       	push	r29
    1304:	00 d0       	rcall	.+0      	; 0x1306 <ikb_setKeyProp+0x6>
    1306:	00 d0       	rcall	.+0      	; 0x1308 <ikb_setKeyProp+0x8>
    1308:	00 d0       	rcall	.+0      	; 0x130a <ikb_setKeyProp+0xa>
    130a:	cd b7       	in	r28, 0x3d	; 61
    130c:	de b7       	in	r29, 0x3e	; 62
    130e:	29 83       	std	Y+1, r18	; 0x01
    1310:	3a 83       	std	Y+2, r19	; 0x02
    1312:	4b 83       	std	Y+3, r20	; 0x03
    1314:	5c 83       	std	Y+4, r21	; 0x04
    1316:	6d 83       	std	Y+5, r22	; 0x05
    1318:	7e 83       	std	Y+6, r23	; 0x06
    131a:	90 e1       	ldi	r25, 0x10	; 16
    131c:	89 9f       	mul	r24, r25
    131e:	d0 01       	movw	r26, r0
    1320:	11 24       	eor	r1, r1
    1322:	aa 52       	subi	r26, 0x2A	; 42
    1324:	bf 4f       	sbci	r27, 0xFF	; 255
    1326:	86 e0       	ldi	r24, 0x06	; 6
    1328:	fe 01       	movw	r30, r28
    132a:	31 96       	adiw	r30, 0x01	; 1
    132c:	01 90       	ld	r0, Z+
    132e:	0d 92       	st	X+, r0
    1330:	8a 95       	dec	r24
    1332:	e1 f7       	brne	.-8      	; 0x132c <ikb_setKeyProp+0x2c>
    1334:	26 96       	adiw	r28, 0x06	; 6
    1336:	0f b6       	in	r0, 0x3f	; 63
    1338:	f8 94       	cli
    133a:	de bf       	out	0x3e, r29	; 62
    133c:	0f be       	out	0x3f, r0	; 63
    133e:	cd bf       	out	0x3d, r28	; 61
    1340:	df 91       	pop	r29
    1342:	cf 91       	pop	r28
    1344:	08 95       	ret

00001346 <ikb_init>:
    1346:	1f 93       	push	r17
    1348:	cf 93       	push	r28
    134a:	df 93       	push	r29
    134c:	00 d0       	rcall	.+0      	; 0x134e <ikb_init+0x8>
    134e:	00 d0       	rcall	.+0      	; 0x1350 <ikb_init+0xa>
    1350:	00 d0       	rcall	.+0      	; 0x1352 <ikb_init+0xc>
    1352:	cd b7       	in	r28, 0x3d	; 61
    1354:	de b7       	in	r29, 0x3e	; 62
    1356:	a4 98       	cbi	0x14, 4	; 20
    1358:	a5 98       	cbi	0x14, 5	; 20
    135a:	a6 98       	cbi	0x14, 6	; 20
    135c:	a7 98       	cbi	0x14, 7	; 20
    135e:	8a 98       	cbi	0x11, 2	; 17
    1360:	ac 9a       	sbi	0x15, 4	; 21
    1362:	ad 9a       	sbi	0x15, 5	; 21
    1364:	ae 9a       	sbi	0x15, 6	; 21
    1366:	af 9a       	sbi	0x15, 7	; 21
    1368:	92 9a       	sbi	0x12, 2	; 18
    136a:	88 e6       	ldi	r24, 0x68	; 104
    136c:	99 e0       	ldi	r25, 0x09	; 9
    136e:	90 93 ce 00 	sts	0x00CE, r25	; 0x8000ce <key+0x1>
    1372:	80 93 cd 00 	sts	0x00CD, r24	; 0x8000cd <key>
    1376:	8c e6       	ldi	r24, 0x6C	; 108
    1378:	99 e0       	ldi	r25, 0x09	; 9
    137a:	90 93 de 00 	sts	0x00DE, r25	; 0x8000de <key+0x11>
    137e:	80 93 dd 00 	sts	0x00DD, r24	; 0x8000dd <key+0x10>
    1382:	81 e7       	ldi	r24, 0x71	; 113
    1384:	99 e0       	ldi	r25, 0x09	; 9
    1386:	90 93 ee 00 	sts	0x00EE, r25	; 0x8000ee <key+0x21>
    138a:	80 93 ed 00 	sts	0x00ED, r24	; 0x8000ed <key+0x20>
    138e:	86 e7       	ldi	r24, 0x76	; 118
    1390:	99 e0       	ldi	r25, 0x09	; 9
    1392:	90 93 fe 00 	sts	0x00FE, r25	; 0x8000fe <key+0x31>
    1396:	80 93 fd 00 	sts	0x00FD, r24	; 0x8000fd <key+0x30>
    139a:	8b e7       	ldi	r24, 0x7B	; 123
    139c:	99 e0       	ldi	r25, 0x09	; 9
    139e:	90 93 0e 01 	sts	0x010E, r25	; 0x80010e <key+0x41>
    13a2:	80 93 0d 01 	sts	0x010D, r24	; 0x80010d <key+0x40>
    13a6:	86 e0       	ldi	r24, 0x06	; 6
    13a8:	fe 01       	movw	r30, r28
    13aa:	31 96       	adiw	r30, 0x01	; 1
    13ac:	df 01       	movw	r26, r30
    13ae:	1d 92       	st	X+, r1
    13b0:	8a 95       	dec	r24
    13b2:	e9 f7       	brne	.-6      	; 0x13ae <ikb_init+0x68>
    13b4:	89 81       	ldd	r24, Y+1	; 0x01
    13b6:	81 60       	ori	r24, 0x01	; 1
    13b8:	89 83       	std	Y+1, r24	; 0x01
    13ba:	10 e0       	ldi	r17, 0x00	; 0
    13bc:	29 81       	ldd	r18, Y+1	; 0x01
    13be:	3a 81       	ldd	r19, Y+2	; 0x02
    13c0:	4b 81       	ldd	r20, Y+3	; 0x03
    13c2:	5c 81       	ldd	r21, Y+4	; 0x04
    13c4:	6d 81       	ldd	r22, Y+5	; 0x05
    13c6:	7e 81       	ldd	r23, Y+6	; 0x06
    13c8:	81 2f       	mov	r24, r17
    13ca:	0e 94 80 09 	call	0x1300	; 0x1300 <ikb_setKeyProp>
    13ce:	1f 5f       	subi	r17, 0xFF	; 255
    13d0:	15 30       	cpi	r17, 0x05	; 5
    13d2:	a1 f7       	brne	.-24     	; 0x13bc <ikb_init+0x76>
    13d4:	26 96       	adiw	r28, 0x06	; 6
    13d6:	0f b6       	in	r0, 0x3f	; 63
    13d8:	f8 94       	cli
    13da:	de bf       	out	0x3e, r29	; 62
    13dc:	0f be       	out	0x3f, r0	; 63
    13de:	cd bf       	out	0x3d, r28	; 61
    13e0:	df 91       	pop	r29
    13e2:	cf 91       	pop	r28
    13e4:	1f 91       	pop	r17
    13e6:	08 95       	ret

000013e8 <ikb_get_AtTimeExpired_BeforeOrAfter>:
    13e8:	90 e1       	ldi	r25, 0x10	; 16
    13ea:	89 9f       	mul	r24, r25
    13ec:	f0 01       	movw	r30, r0
    13ee:	11 24       	eor	r1, r1
    13f0:	e4 52       	subi	r30, 0x24	; 36
    13f2:	ff 4f       	sbci	r31, 0xFF	; 255
    13f4:	80 81       	ld	r24, Z
    13f6:	82 fb       	bst	r24, 2
    13f8:	88 27       	eor	r24, r24
    13fa:	80 f9       	bld	r24, 0
    13fc:	08 95       	ret

000013fe <ikb_key_is_ready2read>:
    13fe:	90 e1       	ldi	r25, 0x10	; 16
    1400:	89 9f       	mul	r24, r25
    1402:	f0 01       	movw	r30, r0
    1404:	11 24       	eor	r1, r1
    1406:	e4 52       	subi	r30, 0x24	; 36
    1408:	ff 4f       	sbci	r31, 0xFF	; 255
    140a:	80 81       	ld	r24, Z
    140c:	86 95       	lsr	r24
    140e:	81 70       	andi	r24, 0x01	; 1
    1410:	08 95       	ret

00001412 <ikb_set_ready2read>:
    1412:	90 e1       	ldi	r25, 0x10	; 16
    1414:	89 9f       	mul	r24, r25
    1416:	f0 01       	movw	r30, r0
    1418:	11 24       	eor	r1, r1
    141a:	e4 52       	subi	r30, 0x24	; 36
    141c:	ff 4f       	sbci	r31, 0xFF	; 255
    141e:	80 81       	ld	r24, Z
    1420:	82 60       	ori	r24, 0x02	; 2
    1422:	80 83       	st	Z, r24
    1424:	08 95       	ret

00001426 <ikb_key_was_read>:
    1426:	90 e1       	ldi	r25, 0x10	; 16
    1428:	89 9f       	mul	r24, r25
    142a:	f0 01       	movw	r30, r0
    142c:	11 24       	eor	r1, r1
    142e:	e4 52       	subi	r30, 0x24	; 36
    1430:	ff 4f       	sbci	r31, 0xFF	; 255
    1432:	80 81       	ld	r24, Z
    1434:	8d 7f       	andi	r24, 0xFD	; 253
    1436:	80 83       	st	Z, r24
    1438:	08 95       	ret

0000143a <ikb_execfunct>:
    143a:	90 e1       	ldi	r25, 0x10	; 16
    143c:	89 9f       	mul	r24, r25
    143e:	f0 01       	movw	r30, r0
    1440:	11 24       	eor	r1, r1
    1442:	e3 53       	subi	r30, 0x33	; 51
    1444:	ff 4f       	sbci	r31, 0xFF	; 255
    1446:	02 80       	ldd	r0, Z+2	; 0x02
    1448:	f3 81       	ldd	r31, Z+3	; 0x03
    144a:	e0 2d       	mov	r30, r0
    144c:	09 94       	ijmp

0000144e <ikey_scan>:
    144e:	ef 92       	push	r14
    1450:	ff 92       	push	r15
    1452:	0f 93       	push	r16
    1454:	1f 93       	push	r17
    1456:	cf 93       	push	r28
    1458:	df 93       	push	r29
    145a:	94 e0       	ldi	r25, 0x04	; 4
    145c:	e9 2e       	mov	r14, r25
    145e:	f1 2c       	mov	r15, r1
    1460:	8a e1       	ldi	r24, 0x1A	; 26
    1462:	8a 95       	dec	r24
    1464:	f1 f7       	brne	.-4      	; 0x1462 <ikey_scan+0x14>
    1466:	00 c0       	rjmp	.+0      	; 0x1468 <ikey_scan+0x1a>
    1468:	87 01       	movw	r16, r14
    146a:	84 e0       	ldi	r24, 0x04	; 4
    146c:	00 0f       	add	r16, r16
    146e:	11 1f       	adc	r17, r17
    1470:	8a 95       	dec	r24
    1472:	e1 f7       	brne	.-8      	; 0x146c <ikey_scan+0x1e>
    1474:	e8 01       	movw	r28, r16
    1476:	c3 53       	subi	r28, 0x33	; 51
    1478:	df 4f       	sbci	r29, 0xFF	; 255
    147a:	8c 81       	ldd	r24, Y+4	; 0x04
    147c:	81 11       	cpse	r24, r1
    147e:	13 c0       	rjmp	.+38     	; 0x14a6 <ikey_scan+0x58>
    1480:	e8 81       	ld	r30, Y
    1482:	f9 81       	ldd	r31, Y+1	; 0x01
    1484:	09 95       	icall
    1486:	81 11       	cpse	r24, r1
    1488:	03 c0       	rjmp	.+6      	; 0x1490 <ikey_scan+0x42>
    148a:	8c 81       	ldd	r24, Y+4	; 0x04
    148c:	8f 5f       	subi	r24, 0xFF	; 255
    148e:	8c 83       	std	Y+4, r24	; 0x04
    1490:	81 e0       	ldi	r24, 0x01	; 1
    1492:	e8 1a       	sub	r14, r24
    1494:	f1 08       	sbc	r15, r1
    1496:	20 f7       	brcc	.-56     	; 0x1460 <ikey_scan+0x12>
    1498:	df 91       	pop	r29
    149a:	cf 91       	pop	r28
    149c:	1f 91       	pop	r17
    149e:	0f 91       	pop	r16
    14a0:	ff 90       	pop	r15
    14a2:	ef 90       	pop	r14
    14a4:	08 95       	ret
    14a6:	8c 81       	ldd	r24, Y+4	; 0x04
    14a8:	81 30       	cpi	r24, 0x01	; 1
    14aa:	a9 f4       	brne	.+42     	; 0x14d6 <ikey_scan+0x88>
    14ac:	8d 81       	ldd	r24, Y+5	; 0x05
    14ae:	8f 5f       	subi	r24, 0xFF	; 255
    14b0:	8d 83       	std	Y+5, r24	; 0x05
    14b2:	81 30       	cpi	r24, 0x01	; 1
    14b4:	69 f7       	brne	.-38     	; 0x1490 <ikey_scan+0x42>
    14b6:	1d 82       	std	Y+5, r1	; 0x05
    14b8:	e8 81       	ld	r30, Y
    14ba:	f9 81       	ldd	r31, Y+1	; 0x01
    14bc:	09 95       	icall
    14be:	88 23       	and	r24, r24
    14c0:	19 f0       	breq	.+6      	; 0x14c8 <ikey_scan+0x7a>
    14c2:	8c 81       	ldd	r24, Y+4	; 0x04
    14c4:	81 50       	subi	r24, 0x01	; 1
    14c6:	e3 cf       	rjmp	.-58     	; 0x148e <ikey_scan+0x40>
    14c8:	f8 01       	movw	r30, r16
    14ca:	e4 52       	subi	r30, 0x24	; 36
    14cc:	ff 4f       	sbci	r31, 0xFF	; 255
    14ce:	80 81       	ld	r24, Z
    14d0:	81 60       	ori	r24, 0x01	; 1
    14d2:	80 83       	st	Z, r24
    14d4:	da cf       	rjmp	.-76     	; 0x148a <ikey_scan+0x3c>
    14d6:	8c 81       	ldd	r24, Y+4	; 0x04
    14d8:	82 30       	cpi	r24, 0x02	; 2
    14da:	31 f4       	brne	.+12     	; 0x14e8 <ikey_scan+0x9a>
    14dc:	e8 81       	ld	r30, Y
    14de:	f9 81       	ldd	r31, Y+1	; 0x01
    14e0:	09 95       	icall
    14e2:	81 30       	cpi	r24, 0x01	; 1
    14e4:	a9 f6       	brne	.-86     	; 0x1490 <ikey_scan+0x42>
    14e6:	d1 cf       	rjmp	.-94     	; 0x148a <ikey_scan+0x3c>
    14e8:	8c 81       	ldd	r24, Y+4	; 0x04
    14ea:	83 30       	cpi	r24, 0x03	; 3
    14ec:	89 f6       	brne	.-94     	; 0x1490 <ikey_scan+0x42>
    14ee:	8d 81       	ldd	r24, Y+5	; 0x05
    14f0:	8f 5f       	subi	r24, 0xFF	; 255
    14f2:	8d 83       	std	Y+5, r24	; 0x05
    14f4:	81 30       	cpi	r24, 0x01	; 1
    14f6:	61 f6       	brne	.-104    	; 0x1490 <ikey_scan+0x42>
    14f8:	1d 82       	std	Y+5, r1	; 0x05
    14fa:	e8 81       	ld	r30, Y
    14fc:	f9 81       	ldd	r31, Y+1	; 0x01
    14fe:	09 95       	icall
    1500:	81 30       	cpi	r24, 0x01	; 1
    1502:	f9 f6       	brne	.-66     	; 0x14c2 <ikey_scan+0x74>
    1504:	f8 01       	movw	r30, r16
    1506:	e4 52       	subi	r30, 0x24	; 36
    1508:	ff 4f       	sbci	r31, 0xFF	; 255
    150a:	80 81       	ld	r24, Z
    150c:	8e 7f       	andi	r24, 0xFE	; 254
    150e:	80 83       	st	Z, r24
    1510:	1c 82       	std	Y+4, r1	; 0x04
    1512:	be cf       	rjmp	.-132    	; 0x1490 <ikey_scan+0x42>

00001514 <ikey_parsing>:
    1514:	bf 92       	push	r11
    1516:	cf 92       	push	r12
    1518:	df 92       	push	r13
    151a:	ef 92       	push	r14
    151c:	ff 92       	push	r15
    151e:	0f 93       	push	r16
    1520:	1f 93       	push	r17
    1522:	cf 93       	push	r28
    1524:	df 93       	push	r29
    1526:	50 e0       	ldi	r21, 0x00	; 0
    1528:	40 e0       	ldi	r20, 0x00	; 0
    152a:	31 e0       	ldi	r19, 0x01	; 1
    152c:	75 e0       	ldi	r23, 0x05	; 5
    152e:	b7 2e       	mov	r11, r23
    1530:	e4 e0       	ldi	r30, 0x04	; 4
    1532:	ce 2e       	mov	r12, r30
    1534:	f7 e0       	ldi	r31, 0x07	; 7
    1536:	df 2e       	mov	r13, r31
    1538:	a6 e0       	ldi	r26, 0x06	; 6
    153a:	fa 2e       	mov	r15, r26
    153c:	b8 e0       	ldi	r27, 0x08	; 8
    153e:	eb 2e       	mov	r14, r27
    1540:	23 e0       	ldi	r18, 0x03	; 3
    1542:	c9 e0       	ldi	r28, 0x09	; 9
    1544:	da e0       	ldi	r29, 0x0A	; 10
    1546:	12 e0       	ldi	r17, 0x02	; 2
    1548:	0b e0       	ldi	r16, 0x0B	; 11
    154a:	ca 01       	movw	r24, r20
    154c:	64 e0       	ldi	r22, 0x04	; 4
    154e:	88 0f       	add	r24, r24
    1550:	99 1f       	adc	r25, r25
    1552:	6a 95       	dec	r22
    1554:	e1 f7       	brne	.-8      	; 0x154e <ikey_parsing+0x3a>
    1556:	fc 01       	movw	r30, r24
    1558:	e3 53       	subi	r30, 0x33	; 51
    155a:	ff 4f       	sbci	r31, 0xFF	; 255
    155c:	66 81       	ldd	r22, Z+6	; 0x06
    155e:	61 11       	cpse	r22, r1
    1560:	3c c0       	rjmp	.+120    	; 0x15da <ikey_parsing+0xc6>
    1562:	66 85       	ldd	r22, Z+14	; 0x0e
    1564:	66 23       	and	r22, r22
    1566:	69 f0       	breq	.+26     	; 0x1582 <ikey_parsing+0x6e>
    1568:	e6 85       	ldd	r30, Z+14	; 0x0e
    156a:	f0 e0       	ldi	r31, 0x00	; 0
    156c:	e8 53       	subi	r30, 0x38	; 56
    156e:	ff 4f       	sbci	r31, 0xFF	; 255
    1570:	60 81       	ld	r22, Z
    1572:	61 30       	cpi	r22, 0x01	; 1
    1574:	31 f4       	brne	.+12     	; 0x1582 <ikey_parsing+0x6e>
    1576:	fc 01       	movw	r30, r24
    1578:	e4 52       	subi	r30, 0x24	; 36
    157a:	ff 4f       	sbci	r31, 0xFF	; 255
    157c:	60 81       	ld	r22, Z
    157e:	63 ff       	sbrs	r22, 3
    1580:	2c c0       	rjmp	.+88     	; 0x15da <ikey_parsing+0xc6>
    1582:	dc 01       	movw	r26, r24
    1584:	a4 52       	subi	r26, 0x24	; 36
    1586:	bf 4f       	sbci	r27, 0xFF	; 255
    1588:	6c 91       	ld	r22, X
    158a:	76 2f       	mov	r23, r22
    158c:	71 70       	andi	r23, 0x01	; 1
    158e:	60 ff       	sbrs	r22, 0
    1590:	24 c0       	rjmp	.+72     	; 0x15da <ikey_parsing+0xc6>
    1592:	fc 01       	movw	r30, r24
    1594:	ea 52       	subi	r30, 0x2A	; 42
    1596:	ff 4f       	sbci	r31, 0xFF	; 255
    1598:	60 81       	ld	r22, Z
    159a:	60 ff       	sbrs	r22, 0
    159c:	59 c1       	rjmp	.+690    	; 0x1850 <ikey_parsing+0x33c>
    159e:	6c 91       	ld	r22, X
    15a0:	62 60       	ori	r22, 0x02	; 2
    15a2:	6c 93       	st	X, r22
    15a4:	60 81       	ld	r22, Z
    15a6:	fc 01       	movw	r30, r24
    15a8:	e3 53       	subi	r30, 0x33	; 51
    15aa:	ff 4f       	sbci	r31, 0xFF	; 255
    15ac:	61 ff       	sbrs	r22, 1
    15ae:	4e c1       	rjmp	.+668    	; 0x184c <ikey_parsing+0x338>
    15b0:	e6 82       	std	Z+6, r14	; 0x06
    15b2:	dc 01       	movw	r26, r24
    15b4:	a4 52       	subi	r26, 0x24	; 36
    15b6:	bf 4f       	sbci	r27, 0xFF	; 255
    15b8:	6c 91       	ld	r22, X
    15ba:	60 61       	ori	r22, 0x10	; 16
    15bc:	6c 93       	st	X, r22
    15be:	fc 01       	movw	r30, r24
    15c0:	e3 53       	subi	r30, 0x33	; 51
    15c2:	ff 4f       	sbci	r31, 0xFF	; 255
    15c4:	66 85       	ldd	r22, Z+14	; 0x0e
    15c6:	66 23       	and	r22, r22
    15c8:	41 f0       	breq	.+16     	; 0x15da <ikey_parsing+0xc6>
    15ca:	e6 85       	ldd	r30, Z+14	; 0x0e
    15cc:	f0 e0       	ldi	r31, 0x00	; 0
    15ce:	e8 53       	subi	r30, 0x38	; 56
    15d0:	ff 4f       	sbci	r31, 0xFF	; 255
    15d2:	30 83       	st	Z, r19
    15d4:	6c 91       	ld	r22, X
    15d6:	68 60       	ori	r22, 0x08	; 8
    15d8:	6c 93       	st	X, r22
    15da:	fc 01       	movw	r30, r24
    15dc:	e3 53       	subi	r30, 0x33	; 51
    15de:	ff 4f       	sbci	r31, 0xFF	; 255
    15e0:	66 81       	ldd	r22, Z+6	; 0x06
    15e2:	68 30       	cpi	r22, 0x08	; 8
    15e4:	60 f0       	brcs	.+24     	; 0x15fe <ikey_parsing+0xea>
    15e6:	66 81       	ldd	r22, Z+6	; 0x06
    15e8:	6b 30       	cpi	r22, 0x0B	; 11
    15ea:	48 f4       	brcc	.+18     	; 0x15fe <ikey_parsing+0xea>
    15ec:	dc 01       	movw	r26, r24
    15ee:	a4 52       	subi	r26, 0x24	; 36
    15f0:	bf 4f       	sbci	r27, 0xFF	; 255
    15f2:	6c 91       	ld	r22, X
    15f4:	60 fd       	sbrc	r22, 0
    15f6:	03 c0       	rjmp	.+6      	; 0x15fe <ikey_parsing+0xea>
    15f8:	10 86       	std	Z+8, r1	; 0x08
    15fa:	17 82       	std	Z+7, r1	; 0x07
    15fc:	26 83       	std	Z+6, r18	; 0x06
    15fe:	fc 01       	movw	r30, r24
    1600:	e3 53       	subi	r30, 0x33	; 51
    1602:	ff 4f       	sbci	r31, 0xFF	; 255
    1604:	66 81       	ldd	r22, Z+6	; 0x06
    1606:	68 30       	cpi	r22, 0x08	; 8
    1608:	71 f4       	brne	.+28     	; 0x1626 <ikey_parsing+0x112>
    160a:	67 81       	ldd	r22, Z+7	; 0x07
    160c:	70 85       	ldd	r23, Z+8	; 0x08
    160e:	6f 5f       	subi	r22, 0xFF	; 255
    1610:	7f 4f       	sbci	r23, 0xFF	; 255
    1612:	70 87       	std	Z+8, r23	; 0x08
    1614:	67 83       	std	Z+7, r22	; 0x07
    1616:	a2 85       	ldd	r26, Z+10	; 0x0a
    1618:	b3 85       	ldd	r27, Z+11	; 0x0b
    161a:	6a 17       	cp	r22, r26
    161c:	7b 07       	cpc	r23, r27
    161e:	18 f0       	brcs	.+6      	; 0x1626 <ikey_parsing+0x112>
    1620:	10 86       	std	Z+8, r1	; 0x08
    1622:	17 82       	std	Z+7, r1	; 0x07
    1624:	c6 83       	std	Z+6, r28	; 0x06
    1626:	dc 01       	movw	r26, r24
    1628:	a3 53       	subi	r26, 0x33	; 51
    162a:	bf 4f       	sbci	r27, 0xFF	; 255
    162c:	16 96       	adiw	r26, 0x06	; 6
    162e:	6c 91       	ld	r22, X
    1630:	16 97       	sbiw	r26, 0x06	; 6
    1632:	69 30       	cpi	r22, 0x09	; 9
    1634:	59 f4       	brne	.+22     	; 0x164c <ikey_parsing+0x138>
    1636:	fc 01       	movw	r30, r24
    1638:	e4 52       	subi	r30, 0x24	; 36
    163a:	ff 4f       	sbci	r31, 0xFF	; 255
    163c:	60 81       	ld	r22, Z
    163e:	61 fd       	sbrc	r22, 1
    1640:	05 c0       	rjmp	.+10     	; 0x164c <ikey_parsing+0x138>
    1642:	60 81       	ld	r22, Z
    1644:	62 60       	ori	r22, 0x02	; 2
    1646:	60 83       	st	Z, r22
    1648:	16 96       	adiw	r26, 0x06	; 6
    164a:	dc 93       	st	X, r29
    164c:	fc 01       	movw	r30, r24
    164e:	e3 53       	subi	r30, 0x33	; 51
    1650:	ff 4f       	sbci	r31, 0xFF	; 255
    1652:	66 81       	ldd	r22, Z+6	; 0x06
    1654:	6a 30       	cpi	r22, 0x0A	; 10
    1656:	71 f4       	brne	.+28     	; 0x1674 <ikey_parsing+0x160>
    1658:	67 81       	ldd	r22, Z+7	; 0x07
    165a:	70 85       	ldd	r23, Z+8	; 0x08
    165c:	6f 5f       	subi	r22, 0xFF	; 255
    165e:	7f 4f       	sbci	r23, 0xFF	; 255
    1660:	70 87       	std	Z+8, r23	; 0x08
    1662:	67 83       	std	Z+7, r22	; 0x07
    1664:	a4 85       	ldd	r26, Z+12	; 0x0c
    1666:	b5 85       	ldd	r27, Z+13	; 0x0d
    1668:	6a 17       	cp	r22, r26
    166a:	7b 07       	cpc	r23, r27
    166c:	18 f0       	brcs	.+6      	; 0x1674 <ikey_parsing+0x160>
    166e:	10 86       	std	Z+8, r1	; 0x08
    1670:	17 82       	std	Z+7, r1	; 0x07
    1672:	c6 83       	std	Z+6, r28	; 0x06
    1674:	dc 01       	movw	r26, r24
    1676:	a3 53       	subi	r26, 0x33	; 51
    1678:	bf 4f       	sbci	r27, 0xFF	; 255
    167a:	16 96       	adiw	r26, 0x06	; 6
    167c:	6c 91       	ld	r22, X
    167e:	16 97       	sbiw	r26, 0x06	; 6
    1680:	66 30       	cpi	r22, 0x06	; 6
    1682:	59 f4       	brne	.+22     	; 0x169a <ikey_parsing+0x186>
    1684:	fc 01       	movw	r30, r24
    1686:	e4 52       	subi	r30, 0x24	; 36
    1688:	ff 4f       	sbci	r31, 0xFF	; 255
    168a:	60 81       	ld	r22, Z
    168c:	60 fd       	sbrc	r22, 0
    168e:	05 c0       	rjmp	.+10     	; 0x169a <ikey_parsing+0x186>
    1690:	60 81       	ld	r22, Z
    1692:	62 60       	ori	r22, 0x02	; 2
    1694:	60 83       	st	Z, r22
    1696:	16 96       	adiw	r26, 0x06	; 6
    1698:	2c 93       	st	X, r18
    169a:	fc 01       	movw	r30, r24
    169c:	e3 53       	subi	r30, 0x33	; 51
    169e:	ff 4f       	sbci	r31, 0xFF	; 255
    16a0:	66 81       	ldd	r22, Z+6	; 0x06
    16a2:	67 30       	cpi	r22, 0x07	; 7
    16a4:	39 f4       	brne	.+14     	; 0x16b4 <ikey_parsing+0x1a0>
    16a6:	dc 01       	movw	r26, r24
    16a8:	a4 52       	subi	r26, 0x24	; 36
    16aa:	bf 4f       	sbci	r27, 0xFF	; 255
    16ac:	6c 91       	ld	r22, X
    16ae:	62 60       	ori	r22, 0x02	; 2
    16b0:	6c 93       	st	X, r22
    16b2:	16 83       	std	Z+6, r17	; 0x06
    16b4:	fc 01       	movw	r30, r24
    16b6:	e3 53       	subi	r30, 0x33	; 51
    16b8:	ff 4f       	sbci	r31, 0xFF	; 255
    16ba:	66 81       	ldd	r22, Z+6	; 0x06
    16bc:	64 30       	cpi	r22, 0x04	; 4
    16be:	a1 f5       	brne	.+104    	; 0x1728 <ikey_parsing+0x214>
    16c0:	67 81       	ldd	r22, Z+7	; 0x07
    16c2:	70 85       	ldd	r23, Z+8	; 0x08
    16c4:	6f 5f       	subi	r22, 0xFF	; 255
    16c6:	7f 4f       	sbci	r23, 0xFF	; 255
    16c8:	70 87       	std	Z+8, r23	; 0x08
    16ca:	67 83       	std	Z+7, r22	; 0x07
    16cc:	dc 01       	movw	r26, r24
    16ce:	a4 52       	subi	r26, 0x24	; 36
    16d0:	bf 4f       	sbci	r27, 0xFF	; 255
    16d2:	6c 91       	ld	r22, X
    16d4:	60 fd       	sbrc	r22, 0
    16d6:	0e c0       	rjmp	.+28     	; 0x16f4 <ikey_parsing+0x1e0>
    16d8:	67 81       	ldd	r22, Z+7	; 0x07
    16da:	70 85       	ldd	r23, Z+8	; 0x08
    16dc:	63 33       	cpi	r22, 0x33	; 51
    16de:	71 05       	cpc	r23, r1
    16e0:	48 f4       	brcc	.+18     	; 0x16f4 <ikey_parsing+0x1e0>
    16e2:	10 86       	std	Z+8, r1	; 0x08
    16e4:	17 82       	std	Z+7, r1	; 0x07
    16e6:	6c 91       	ld	r22, X
    16e8:	62 60       	ori	r22, 0x02	; 2
    16ea:	6c 93       	st	X, r22
    16ec:	6c 91       	ld	r22, X
    16ee:	6b 7f       	andi	r22, 0xFB	; 251
    16f0:	6c 93       	st	X, r22
    16f2:	26 83       	std	Z+6, r18	; 0x06
    16f4:	fc 01       	movw	r30, r24
    16f6:	e3 53       	subi	r30, 0x33	; 51
    16f8:	ff 4f       	sbci	r31, 0xFF	; 255
    16fa:	67 81       	ldd	r22, Z+7	; 0x07
    16fc:	70 85       	ldd	r23, Z+8	; 0x08
    16fe:	63 33       	cpi	r22, 0x33	; 51
    1700:	71 05       	cpc	r23, r1
    1702:	90 f0       	brcs	.+36     	; 0x1728 <ikey_parsing+0x214>
    1704:	10 86       	std	Z+8, r1	; 0x08
    1706:	17 82       	std	Z+7, r1	; 0x07
    1708:	dc 01       	movw	r26, r24
    170a:	a4 52       	subi	r26, 0x24	; 36
    170c:	bf 4f       	sbci	r27, 0xFF	; 255
    170e:	6c 91       	ld	r22, X
    1710:	62 60       	ori	r22, 0x02	; 2
    1712:	6c 93       	st	X, r22
    1714:	6c 91       	ld	r22, X
    1716:	64 60       	ori	r22, 0x04	; 4
    1718:	6c 93       	st	X, r22
    171a:	dc 01       	movw	r26, r24
    171c:	aa 52       	subi	r26, 0x2A	; 42
    171e:	bf 4f       	sbci	r27, 0xFF	; 255
    1720:	6c 91       	ld	r22, X
    1722:	61 fd       	sbrc	r22, 1
    1724:	b5 c0       	rjmp	.+362    	; 0x1890 <ikey_parsing+0x37c>
    1726:	36 83       	std	Z+6, r19	; 0x06
    1728:	fc 01       	movw	r30, r24
    172a:	e3 53       	subi	r30, 0x33	; 51
    172c:	ff 4f       	sbci	r31, 0xFF	; 255
    172e:	66 81       	ldd	r22, Z+6	; 0x06
    1730:	65 30       	cpi	r22, 0x05	; 5
    1732:	99 f5       	brne	.+102    	; 0x179a <ikey_parsing+0x286>
    1734:	67 81       	ldd	r22, Z+7	; 0x07
    1736:	70 85       	ldd	r23, Z+8	; 0x08
    1738:	6f 5f       	subi	r22, 0xFF	; 255
    173a:	7f 4f       	sbci	r23, 0xFF	; 255
    173c:	70 87       	std	Z+8, r23	; 0x08
    173e:	67 83       	std	Z+7, r22	; 0x07
    1740:	dc 01       	movw	r26, r24
    1742:	a4 52       	subi	r26, 0x24	; 36
    1744:	bf 4f       	sbci	r27, 0xFF	; 255
    1746:	6c 91       	ld	r22, X
    1748:	60 fd       	sbrc	r22, 0
    174a:	0e c0       	rjmp	.+28     	; 0x1768 <ikey_parsing+0x254>
    174c:	67 81       	ldd	r22, Z+7	; 0x07
    174e:	70 85       	ldd	r23, Z+8	; 0x08
    1750:	63 33       	cpi	r22, 0x33	; 51
    1752:	71 05       	cpc	r23, r1
    1754:	48 f4       	brcc	.+18     	; 0x1768 <ikey_parsing+0x254>
    1756:	10 86       	std	Z+8, r1	; 0x08
    1758:	17 82       	std	Z+7, r1	; 0x07
    175a:	6c 91       	ld	r22, X
    175c:	62 60       	ori	r22, 0x02	; 2
    175e:	6c 93       	st	X, r22
    1760:	6c 91       	ld	r22, X
    1762:	6b 7f       	andi	r22, 0xFB	; 251
    1764:	6c 93       	st	X, r22
    1766:	26 83       	std	Z+6, r18	; 0x06
    1768:	dc 01       	movw	r26, r24
    176a:	a3 53       	subi	r26, 0x33	; 51
    176c:	bf 4f       	sbci	r27, 0xFF	; 255
    176e:	17 96       	adiw	r26, 0x07	; 7
    1770:	6d 91       	ld	r22, X+
    1772:	7c 91       	ld	r23, X
    1774:	18 97       	sbiw	r26, 0x08	; 8
    1776:	64 36       	cpi	r22, 0x64	; 100
    1778:	71 05       	cpc	r23, r1
    177a:	78 f0       	brcs	.+30     	; 0x179a <ikey_parsing+0x286>
    177c:	18 96       	adiw	r26, 0x08	; 8
    177e:	1c 92       	st	X, r1
    1780:	1e 92       	st	-X, r1
    1782:	17 97       	sbiw	r26, 0x07	; 7
    1784:	fc 01       	movw	r30, r24
    1786:	e4 52       	subi	r30, 0x24	; 36
    1788:	ff 4f       	sbci	r31, 0xFF	; 255
    178a:	60 81       	ld	r22, Z
    178c:	62 60       	ori	r22, 0x02	; 2
    178e:	60 83       	st	Z, r22
    1790:	60 81       	ld	r22, Z
    1792:	64 60       	ori	r22, 0x04	; 4
    1794:	60 83       	st	Z, r22
    1796:	16 96       	adiw	r26, 0x06	; 6
    1798:	1c 93       	st	X, r17
    179a:	fc 01       	movw	r30, r24
    179c:	e3 53       	subi	r30, 0x33	; 51
    179e:	ff 4f       	sbci	r31, 0xFF	; 255
    17a0:	66 81       	ldd	r22, Z+6	; 0x06
    17a2:	61 30       	cpi	r22, 0x01	; 1
    17a4:	31 f4       	brne	.+12     	; 0x17b2 <ikey_parsing+0x29e>
    17a6:	dc 01       	movw	r26, r24
    17a8:	a4 52       	subi	r26, 0x24	; 36
    17aa:	bf 4f       	sbci	r27, 0xFF	; 255
    17ac:	6c 91       	ld	r22, X
    17ae:	60 ff       	sbrs	r22, 0
    17b0:	26 83       	std	Z+6, r18	; 0x06
    17b2:	dc 01       	movw	r26, r24
    17b4:	a3 53       	subi	r26, 0x33	; 51
    17b6:	bf 4f       	sbci	r27, 0xFF	; 255
    17b8:	16 96       	adiw	r26, 0x06	; 6
    17ba:	6c 91       	ld	r22, X
    17bc:	16 97       	sbiw	r26, 0x06	; 6
    17be:	62 30       	cpi	r22, 0x02	; 2
    17c0:	59 f4       	brne	.+22     	; 0x17d8 <ikey_parsing+0x2c4>
    17c2:	fc 01       	movw	r30, r24
    17c4:	e4 52       	subi	r30, 0x24	; 36
    17c6:	ff 4f       	sbci	r31, 0xFF	; 255
    17c8:	60 81       	ld	r22, Z
    17ca:	60 fd       	sbrc	r22, 0
    17cc:	05 c0       	rjmp	.+10     	; 0x17d8 <ikey_parsing+0x2c4>
    17ce:	60 81       	ld	r22, Z
    17d0:	6d 7f       	andi	r22, 0xFD	; 253
    17d2:	60 83       	st	Z, r22
    17d4:	16 96       	adiw	r26, 0x06	; 6
    17d6:	0c 93       	st	X, r16
    17d8:	fc 01       	movw	r30, r24
    17da:	e3 53       	subi	r30, 0x33	; 51
    17dc:	ff 4f       	sbci	r31, 0xFF	; 255
    17de:	66 81       	ldd	r22, Z+6	; 0x06
    17e0:	63 30       	cpi	r22, 0x03	; 3
    17e2:	31 f4       	brne	.+12     	; 0x17f0 <ikey_parsing+0x2dc>
    17e4:	dc 01       	movw	r26, r24
    17e6:	a4 52       	subi	r26, 0x24	; 36
    17e8:	bf 4f       	sbci	r27, 0xFF	; 255
    17ea:	6c 91       	ld	r22, X
    17ec:	61 ff       	sbrs	r22, 1
    17ee:	06 83       	std	Z+6, r16	; 0x06
    17f0:	fc 01       	movw	r30, r24
    17f2:	e3 53       	subi	r30, 0x33	; 51
    17f4:	ff 4f       	sbci	r31, 0xFF	; 255
    17f6:	66 81       	ldd	r22, Z+6	; 0x06
    17f8:	6b 30       	cpi	r22, 0x0B	; 11
    17fa:	c1 f4       	brne	.+48     	; 0x182c <ikey_parsing+0x318>
    17fc:	66 85       	ldd	r22, Z+14	; 0x0e
    17fe:	66 23       	and	r22, r22
    1800:	59 f0       	breq	.+22     	; 0x1818 <ikey_parsing+0x304>
    1802:	e6 85       	ldd	r30, Z+14	; 0x0e
    1804:	f0 e0       	ldi	r31, 0x00	; 0
    1806:	e8 53       	subi	r30, 0x38	; 56
    1808:	ff 4f       	sbci	r31, 0xFF	; 255
    180a:	10 82       	st	Z, r1
    180c:	fc 01       	movw	r30, r24
    180e:	e4 52       	subi	r30, 0x24	; 36
    1810:	ff 4f       	sbci	r31, 0xFF	; 255
    1812:	60 81       	ld	r22, Z
    1814:	67 7f       	andi	r22, 0xF7	; 247
    1816:	60 83       	st	Z, r22
    1818:	fc 01       	movw	r30, r24
    181a:	e3 53       	subi	r30, 0x33	; 51
    181c:	ff 4f       	sbci	r31, 0xFF	; 255
    181e:	16 82       	std	Z+6, r1	; 0x06
    1820:	fc 01       	movw	r30, r24
    1822:	e4 52       	subi	r30, 0x24	; 36
    1824:	ff 4f       	sbci	r31, 0xFF	; 255
    1826:	80 81       	ld	r24, Z
    1828:	8f 7e       	andi	r24, 0xEF	; 239
    182a:	80 83       	st	Z, r24
    182c:	4f 5f       	subi	r20, 0xFF	; 255
    182e:	5f 4f       	sbci	r21, 0xFF	; 255
    1830:	45 30       	cpi	r20, 0x05	; 5
    1832:	51 05       	cpc	r21, r1
    1834:	09 f0       	breq	.+2      	; 0x1838 <ikey_parsing+0x324>
    1836:	89 ce       	rjmp	.-750    	; 0x154a <ikey_parsing+0x36>
    1838:	df 91       	pop	r29
    183a:	cf 91       	pop	r28
    183c:	1f 91       	pop	r17
    183e:	0f 91       	pop	r16
    1840:	ff 90       	pop	r15
    1842:	ef 90       	pop	r14
    1844:	df 90       	pop	r13
    1846:	cf 90       	pop	r12
    1848:	bf 90       	pop	r11
    184a:	08 95       	ret
    184c:	76 83       	std	Z+6, r23	; 0x06
    184e:	b1 ce       	rjmp	.-670    	; 0x15b2 <ikey_parsing+0x9e>
    1850:	60 81       	ld	r22, Z
    1852:	62 ff       	sbrs	r22, 2
    1854:	05 c0       	rjmp	.+10     	; 0x1860 <ikey_parsing+0x34c>
    1856:	fc 01       	movw	r30, r24
    1858:	e3 53       	subi	r30, 0x33	; 51
    185a:	ff 4f       	sbci	r31, 0xFF	; 255
    185c:	f6 82       	std	Z+6, r15	; 0x06
    185e:	a9 ce       	rjmp	.-686    	; 0x15b2 <ikey_parsing+0x9e>
    1860:	60 81       	ld	r22, Z
    1862:	63 ff       	sbrs	r22, 3
    1864:	05 c0       	rjmp	.+10     	; 0x1870 <ikey_parsing+0x35c>
    1866:	fc 01       	movw	r30, r24
    1868:	e3 53       	subi	r30, 0x33	; 51
    186a:	ff 4f       	sbci	r31, 0xFF	; 255
    186c:	d6 82       	std	Z+6, r13	; 0x06
    186e:	a1 ce       	rjmp	.-702    	; 0x15b2 <ikey_parsing+0x9e>
    1870:	60 81       	ld	r22, Z
    1872:	64 ff       	sbrs	r22, 4
    1874:	05 c0       	rjmp	.+10     	; 0x1880 <ikey_parsing+0x36c>
    1876:	fc 01       	movw	r30, r24
    1878:	e3 53       	subi	r30, 0x33	; 51
    187a:	ff 4f       	sbci	r31, 0xFF	; 255
    187c:	c6 82       	std	Z+6, r12	; 0x06
    187e:	99 ce       	rjmp	.-718    	; 0x15b2 <ikey_parsing+0x9e>
    1880:	60 81       	ld	r22, Z
    1882:	65 ff       	sbrs	r22, 5
    1884:	96 ce       	rjmp	.-724    	; 0x15b2 <ikey_parsing+0x9e>
    1886:	fc 01       	movw	r30, r24
    1888:	e3 53       	subi	r30, 0x33	; 51
    188a:	ff 4f       	sbci	r31, 0xFF	; 255
    188c:	b6 82       	std	Z+6, r11	; 0x06
    188e:	91 ce       	rjmp	.-734    	; 0x15b2 <ikey_parsing+0x9e>
    1890:	d6 83       	std	Z+6, r29	; 0x06
    1892:	4a cf       	rjmp	.-364    	; 0x1728 <ikey_parsing+0x214>

00001894 <ikb_job>:
    1894:	0e 94 27 0a 	call	0x144e	; 0x144e <ikey_scan>
    1898:	0c 94 8a 0a 	jmp	0x1514	; 0x1514 <ikey_parsing>

0000189c <ikey_is_all_hw_released>:
    189c:	90 e0       	ldi	r25, 0x00	; 0
    189e:	80 e0       	ldi	r24, 0x00	; 0
    18a0:	fc 01       	movw	r30, r24
    18a2:	24 e0       	ldi	r18, 0x04	; 4
    18a4:	ee 0f       	add	r30, r30
    18a6:	ff 1f       	adc	r31, r31
    18a8:	2a 95       	dec	r18
    18aa:	e1 f7       	brne	.-8      	; 0x18a4 <ikey_is_all_hw_released+0x8>
    18ac:	e4 52       	subi	r30, 0x24	; 36
    18ae:	ff 4f       	sbci	r31, 0xFF	; 255
    18b0:	20 81       	ld	r18, Z
    18b2:	20 fd       	sbrc	r18, 0
    18b4:	06 c0       	rjmp	.+12     	; 0x18c2 <ikey_is_all_hw_released+0x26>
    18b6:	01 96       	adiw	r24, 0x01	; 1
    18b8:	85 30       	cpi	r24, 0x05	; 5
    18ba:	91 05       	cpc	r25, r1
    18bc:	89 f7       	brne	.-30     	; 0x18a0 <ikey_is_all_hw_released+0x4>
    18be:	81 e0       	ldi	r24, 0x01	; 1
    18c0:	08 95       	ret
    18c2:	80 e0       	ldi	r24, 0x00	; 0
    18c4:	08 95       	ret

000018c6 <ikey_clear_all_flag>:
    18c6:	ec ed       	ldi	r30, 0xDC	; 220
    18c8:	f0 e0       	ldi	r31, 0x00	; 0
    18ca:	80 81       	ld	r24, Z
    18cc:	8d 7f       	andi	r24, 0xFD	; 253
    18ce:	80 83       	st	Z, r24
    18d0:	ec ee       	ldi	r30, 0xEC	; 236
    18d2:	f0 e0       	ldi	r31, 0x00	; 0
    18d4:	80 81       	ld	r24, Z
    18d6:	8d 7f       	andi	r24, 0xFD	; 253
    18d8:	80 83       	st	Z, r24
    18da:	ec ef       	ldi	r30, 0xFC	; 252
    18dc:	f0 e0       	ldi	r31, 0x00	; 0
    18de:	80 81       	ld	r24, Z
    18e0:	8d 7f       	andi	r24, 0xFD	; 253
    18e2:	80 83       	st	Z, r24
    18e4:	ec e0       	ldi	r30, 0x0C	; 12
    18e6:	f1 e0       	ldi	r31, 0x01	; 1
    18e8:	80 81       	ld	r24, Z
    18ea:	8d 7f       	andi	r24, 0xFD	; 253
    18ec:	80 83       	st	Z, r24
    18ee:	ec e1       	ldi	r30, 0x1C	; 28
    18f0:	f1 e0       	ldi	r31, 0x01	; 1
    18f2:	80 81       	ld	r24, Z
    18f4:	8d 7f       	andi	r24, 0xFD	; 253
    18f6:	80 83       	st	Z, r24
    18f8:	08 95       	ret

000018fa <ikb_flush>:
    18fa:	0c 94 63 0c 	jmp	0x18c6	; 0x18c6 <ikey_clear_all_flag>

000018fe <ikey_is_all_process_finished>:
    18fe:	90 e0       	ldi	r25, 0x00	; 0
    1900:	80 e0       	ldi	r24, 0x00	; 0
    1902:	fc 01       	movw	r30, r24
    1904:	24 e0       	ldi	r18, 0x04	; 4
    1906:	ee 0f       	add	r30, r30
    1908:	ff 1f       	adc	r31, r31
    190a:	2a 95       	dec	r18
    190c:	e1 f7       	brne	.-8      	; 0x1906 <ikey_is_all_process_finished+0x8>
    190e:	e4 52       	subi	r30, 0x24	; 36
    1910:	ff 4f       	sbci	r31, 0xFF	; 255
    1912:	20 81       	ld	r18, Z
    1914:	24 fd       	sbrc	r18, 4
    1916:	06 c0       	rjmp	.+12     	; 0x1924 <ikey_is_all_process_finished+0x26>
    1918:	01 96       	adiw	r24, 0x01	; 1
    191a:	85 30       	cpi	r24, 0x05	; 5
    191c:	91 05       	cpc	r25, r1
    191e:	89 f7       	brne	.-30     	; 0x1902 <ikey_is_all_process_finished+0x4>
    1920:	81 e0       	ldi	r24, 0x01	; 1
    1922:	08 95       	ret
    1924:	80 e0       	ldi	r24, 0x00	; 0
    1926:	08 95       	ret

00001928 <startSignal_init>:
    1928:	80 b3       	in	r24, 0x10	; 16
    192a:	82 95       	swap	r24
    192c:	81 70       	andi	r24, 0x01	; 1
    192e:	91 e0       	ldi	r25, 0x01	; 1
    1930:	89 27       	eor	r24, r25
    1932:	e3 e2       	ldi	r30, 0x23	; 35
    1934:	f1 e0       	ldi	r31, 0x01	; 1
    1936:	81 83       	std	Z+1, r24	; 0x01
    1938:	80 83       	st	Z, r24
    193a:	08 95       	ret

0000193c <is_startSignal>:
    193c:	90 91 20 01 	lds	r25, 0x0120	; 0x800120 <sm0.3>
    1940:	91 11       	cpse	r25, r1
    1942:	10 c0       	rjmp	.+32     	; 0x1964 <is_startSignal+0x28>
    1944:	80 b3       	in	r24, 0x10	; 16
    1946:	91 e0       	ldi	r25, 0x01	; 1
    1948:	82 95       	swap	r24
    194a:	81 70       	andi	r24, 0x01	; 1
    194c:	89 27       	eor	r24, r25
    194e:	20 91 24 01 	lds	r18, 0x0124	; 0x800124 <startSignal+0x1>
    1952:	28 17       	cp	r18, r24
    1954:	21 f0       	breq	.+8      	; 0x195e <is_startSignal+0x22>
    1956:	80 93 24 01 	sts	0x0124, r24	; 0x800124 <startSignal+0x1>
    195a:	90 93 20 01 	sts	0x0120, r25	; 0x800120 <sm0.3>
    195e:	80 91 23 01 	lds	r24, 0x0123	; 0x800123 <startSignal>
    1962:	08 95       	ret
    1964:	91 30       	cpi	r25, 0x01	; 1
    1966:	d9 f7       	brne	.-10     	; 0x195e <is_startSignal+0x22>
    1968:	80 91 31 01 	lds	r24, 0x0131	; 0x800131 <smain>
    196c:	80 ff       	sbrs	r24, 0
    196e:	f7 cf       	rjmp	.-18     	; 0x195e <is_startSignal+0x22>
    1970:	80 91 1f 01 	lds	r24, 0x011F	; 0x80011f <c.2>
    1974:	21 e0       	ldi	r18, 0x01	; 1
    1976:	28 0f       	add	r18, r24
    1978:	83 31       	cpi	r24, 0x13	; 19
    197a:	19 f0       	breq	.+6      	; 0x1982 <is_startSignal+0x46>
    197c:	20 93 1f 01 	sts	0x011F, r18	; 0x80011f <c.2>
    1980:	ee cf       	rjmp	.-36     	; 0x195e <is_startSignal+0x22>
    1982:	10 92 1f 01 	sts	0x011F, r1	; 0x80011f <c.2>
    1986:	80 b3       	in	r24, 0x10	; 16
    1988:	20 91 24 01 	lds	r18, 0x0124	; 0x800124 <startSignal+0x1>
    198c:	82 95       	swap	r24
    198e:	8f 70       	andi	r24, 0x0F	; 15
    1990:	89 27       	eor	r24, r25
    1992:	81 70       	andi	r24, 0x01	; 1
    1994:	28 13       	cpse	r18, r24
    1996:	02 c0       	rjmp	.+4      	; 0x199c <is_startSignal+0x60>
    1998:	20 93 23 01 	sts	0x0123, r18	; 0x800123 <startSignal>
    199c:	10 92 20 01 	sts	0x0120, r1	; 0x800120 <sm0.3>
    19a0:	de cf       	rjmp	.-68     	; 0x195e <is_startSignal+0x22>

000019a2 <oilLevel_init>:
    19a2:	86 b3       	in	r24, 0x16	; 22
    19a4:	90 e0       	ldi	r25, 0x00	; 0
    19a6:	88 0f       	add	r24, r24
    19a8:	89 2f       	mov	r24, r25
    19aa:	88 1f       	adc	r24, r24
    19ac:	99 0b       	sbc	r25, r25
    19ae:	e1 e2       	ldi	r30, 0x21	; 33
    19b0:	f1 e0       	ldi	r31, 0x01	; 1
    19b2:	81 83       	std	Z+1, r24	; 0x01
    19b4:	80 83       	st	Z, r24
    19b6:	08 95       	ret

000019b8 <is_oilLevel>:
    19b8:	80 91 1e 01 	lds	r24, 0x011E	; 0x80011e <sm0.1>
    19bc:	81 11       	cpse	r24, r1
    19be:	12 c0       	rjmp	.+36     	; 0x19e4 <is_oilLevel+0x2c>
    19c0:	86 b3       	in	r24, 0x16	; 22
    19c2:	90 e0       	ldi	r25, 0x00	; 0
    19c4:	88 0f       	add	r24, r24
    19c6:	89 2f       	mov	r24, r25
    19c8:	88 1f       	adc	r24, r24
    19ca:	99 0b       	sbc	r25, r25
    19cc:	20 91 22 01 	lds	r18, 0x0122	; 0x800122 <oilLevel+0x1>
    19d0:	28 17       	cp	r18, r24
    19d2:	29 f0       	breq	.+10     	; 0x19de <is_oilLevel+0x26>
    19d4:	80 93 22 01 	sts	0x0122, r24	; 0x800122 <oilLevel+0x1>
    19d8:	81 e0       	ldi	r24, 0x01	; 1
    19da:	80 93 1e 01 	sts	0x011E, r24	; 0x80011e <sm0.1>
    19de:	80 91 21 01 	lds	r24, 0x0121	; 0x800121 <oilLevel>
    19e2:	08 95       	ret
    19e4:	81 30       	cpi	r24, 0x01	; 1
    19e6:	d9 f7       	brne	.-10     	; 0x19de <is_oilLevel+0x26>
    19e8:	80 91 31 01 	lds	r24, 0x0131	; 0x800131 <smain>
    19ec:	80 ff       	sbrs	r24, 0
    19ee:	f7 cf       	rjmp	.-18     	; 0x19de <is_oilLevel+0x26>
    19f0:	80 91 1d 01 	lds	r24, 0x011D	; 0x80011d <c.0>
    19f4:	91 e0       	ldi	r25, 0x01	; 1
    19f6:	98 0f       	add	r25, r24
    19f8:	83 31       	cpi	r24, 0x13	; 19
    19fa:	19 f0       	breq	.+6      	; 0x1a02 <is_oilLevel+0x4a>
    19fc:	90 93 1d 01 	sts	0x011D, r25	; 0x80011d <c.0>
    1a00:	ee cf       	rjmp	.-36     	; 0x19de <is_oilLevel+0x26>
    1a02:	10 92 1d 01 	sts	0x011D, r1	; 0x80011d <c.0>
    1a06:	86 b3       	in	r24, 0x16	; 22
    1a08:	90 91 22 01 	lds	r25, 0x0122	; 0x800122 <oilLevel+0x1>
    1a0c:	88 1f       	adc	r24, r24
    1a0e:	88 27       	eor	r24, r24
    1a10:	88 1f       	adc	r24, r24
    1a12:	89 13       	cpse	r24, r25
    1a14:	02 c0       	rjmp	.+4      	; 0x1a1a <is_oilLevel+0x62>
    1a16:	90 93 21 01 	sts	0x0121, r25	; 0x800121 <oilLevel>
    1a1a:	10 92 1e 01 	sts	0x011E, r1	; 0x80011e <sm0.1>
    1a1e:	df cf       	rjmp	.-66     	; 0x19de <is_oilLevel+0x26>

00001a20 <is_homeSensor>:
    1a20:	80 b3       	in	r24, 0x10	; 16
    1a22:	88 1f       	adc	r24, r24
    1a24:	88 27       	eor	r24, r24
    1a26:	88 1f       	adc	r24, r24
    1a28:	08 95       	ret

00001a2a <is_unblocked_nozzle>:
    1a2a:	81 e0       	ldi	r24, 0x01	; 1
    1a2c:	08 95       	ret

00001a2e <is_inductiveSensorRPM>:
    1a2e:	81 e0       	ldi	r24, 0x01	; 1
    1a30:	08 95       	ret

00001a32 <mykb_layout0>:
    1a32:	cf 93       	push	r28
    1a34:	df 93       	push	r29
    1a36:	00 d0       	rcall	.+0      	; 0x1a38 <mykb_layout0+0x6>
    1a38:	00 d0       	rcall	.+0      	; 0x1a3a <mykb_layout0+0x8>
    1a3a:	00 d0       	rcall	.+0      	; 0x1a3c <mykb_layout0+0xa>
    1a3c:	cd b7       	in	r28, 0x3d	; 61
    1a3e:	de b7       	in	r29, 0x3e	; 62
    1a40:	86 e0       	ldi	r24, 0x06	; 6
    1a42:	e0 ea       	ldi	r30, 0xA0	; 160
    1a44:	f0 e0       	ldi	r31, 0x00	; 0
    1a46:	de 01       	movw	r26, r28
    1a48:	11 96       	adiw	r26, 0x01	; 1
    1a4a:	01 90       	ld	r0, Z+
    1a4c:	0d 92       	st	X+, r0
    1a4e:	8a 95       	dec	r24
    1a50:	e1 f7       	brne	.-8      	; 0x1a4a <mykb_layout0+0x18>
    1a52:	29 81       	ldd	r18, Y+1	; 0x01
    1a54:	23 60       	ori	r18, 0x03	; 3
    1a56:	29 83       	std	Y+1, r18	; 0x01
    1a58:	89 e1       	ldi	r24, 0x19	; 25
    1a5a:	38 2f       	mov	r19, r24
    1a5c:	8a 83       	std	Y+2, r24	; 0x02
    1a5e:	1b 82       	std	Y+3, r1	; 0x03
    1a60:	8f e0       	ldi	r24, 0x0F	; 15
    1a62:	58 2f       	mov	r21, r24
    1a64:	8c 83       	std	Y+4, r24	; 0x04
    1a66:	1d 82       	std	Y+5, r1	; 0x05
    1a68:	81 e0       	ldi	r24, 0x01	; 1
    1a6a:	8e 83       	std	Y+6, r24	; 0x06
    1a6c:	40 e0       	ldi	r20, 0x00	; 0
    1a6e:	60 e0       	ldi	r22, 0x00	; 0
    1a70:	71 e0       	ldi	r23, 0x01	; 1
    1a72:	80 e0       	ldi	r24, 0x00	; 0
    1a74:	0e 94 80 09 	call	0x1300	; 0x1300 <ikb_setKeyProp>
    1a78:	29 81       	ldd	r18, Y+1	; 0x01
    1a7a:	3a 81       	ldd	r19, Y+2	; 0x02
    1a7c:	4b 81       	ldd	r20, Y+3	; 0x03
    1a7e:	5c 81       	ldd	r21, Y+4	; 0x04
    1a80:	6d 81       	ldd	r22, Y+5	; 0x05
    1a82:	7e 81       	ldd	r23, Y+6	; 0x06
    1a84:	81 e0       	ldi	r24, 0x01	; 1
    1a86:	0e 94 80 09 	call	0x1300	; 0x1300 <ikb_setKeyProp>
    1a8a:	86 e0       	ldi	r24, 0x06	; 6
    1a8c:	e0 ea       	ldi	r30, 0xA0	; 160
    1a8e:	f0 e0       	ldi	r31, 0x00	; 0
    1a90:	de 01       	movw	r26, r28
    1a92:	11 96       	adiw	r26, 0x01	; 1
    1a94:	01 90       	ld	r0, Z+
    1a96:	0d 92       	st	X+, r0
    1a98:	8a 95       	dec	r24
    1a9a:	e1 f7       	brne	.-8      	; 0x1a94 <mykb_layout0+0x62>
    1a9c:	29 81       	ldd	r18, Y+1	; 0x01
    1a9e:	20 62       	ori	r18, 0x20	; 32
    1aa0:	29 83       	std	Y+1, r18	; 0x01
    1aa2:	3a 81       	ldd	r19, Y+2	; 0x02
    1aa4:	4b 81       	ldd	r20, Y+3	; 0x03
    1aa6:	5c 81       	ldd	r21, Y+4	; 0x04
    1aa8:	6d 81       	ldd	r22, Y+5	; 0x05
    1aaa:	7e 81       	ldd	r23, Y+6	; 0x06
    1aac:	82 e0       	ldi	r24, 0x02	; 2
    1aae:	0e 94 80 09 	call	0x1300	; 0x1300 <ikb_setKeyProp>
    1ab2:	29 81       	ldd	r18, Y+1	; 0x01
    1ab4:	3a 81       	ldd	r19, Y+2	; 0x02
    1ab6:	4b 81       	ldd	r20, Y+3	; 0x03
    1ab8:	5c 81       	ldd	r21, Y+4	; 0x04
    1aba:	6d 81       	ldd	r22, Y+5	; 0x05
    1abc:	7e 81       	ldd	r23, Y+6	; 0x06
    1abe:	83 e0       	ldi	r24, 0x03	; 3
    1ac0:	0e 94 80 09 	call	0x1300	; 0x1300 <ikb_setKeyProp>
    1ac4:	86 e0       	ldi	r24, 0x06	; 6
    1ac6:	e0 ea       	ldi	r30, 0xA0	; 160
    1ac8:	f0 e0       	ldi	r31, 0x00	; 0
    1aca:	de 01       	movw	r26, r28
    1acc:	11 96       	adiw	r26, 0x01	; 1
    1ace:	01 90       	ld	r0, Z+
    1ad0:	0d 92       	st	X+, r0
    1ad2:	8a 95       	dec	r24
    1ad4:	e1 f7       	brne	.-8      	; 0x1ace <mykb_layout0+0x9c>
    1ad6:	29 81       	ldd	r18, Y+1	; 0x01
    1ad8:	28 60       	ori	r18, 0x08	; 8
    1ada:	3a 81       	ldd	r19, Y+2	; 0x02
    1adc:	4b 81       	ldd	r20, Y+3	; 0x03
    1ade:	5c 81       	ldd	r21, Y+4	; 0x04
    1ae0:	6d 81       	ldd	r22, Y+5	; 0x05
    1ae2:	7e 81       	ldd	r23, Y+6	; 0x06
    1ae4:	84 e0       	ldi	r24, 0x04	; 4
    1ae6:	26 96       	adiw	r28, 0x06	; 6
    1ae8:	0f b6       	in	r0, 0x3f	; 63
    1aea:	f8 94       	cli
    1aec:	de bf       	out	0x3e, r29	; 62
    1aee:	0f be       	out	0x3f, r0	; 63
    1af0:	cd bf       	out	0x3d, r28	; 61
    1af2:	df 91       	pop	r29
    1af4:	cf 91       	pop	r28
    1af6:	0c 94 80 09 	jmp	0x1300	; 0x1300 <ikb_setKeyProp>

00001afa <__vector_9>:
    1afa:	1f 92       	push	r1
    1afc:	0f 92       	push	r0
    1afe:	0f b6       	in	r0, 0x3f	; 63
    1b00:	0f 92       	push	r0
    1b02:	11 24       	eor	r1, r1
    1b04:	2f 93       	push	r18
    1b06:	3f 93       	push	r19
    1b08:	4f 93       	push	r20
    1b0a:	5f 93       	push	r21
    1b0c:	6f 93       	push	r22
    1b0e:	7f 93       	push	r23
    1b10:	8f 93       	push	r24
    1b12:	9f 93       	push	r25
    1b14:	af 93       	push	r26
    1b16:	bf 93       	push	r27
    1b18:	ef 93       	push	r30
    1b1a:	ff 93       	push	r31
    1b1c:	80 91 38 01 	lds	r24, 0x0138	; 0x800138 <ustep_sm0.6>
    1b20:	81 11       	cpse	r24, r1
    1b22:	0b c0       	rjmp	.+22     	; 0x1b3a <__vector_9+0x40>
    1b24:	0e 94 72 0f 	call	0x1ee4	; 0x1ee4 <mpap_job>
    1b28:	0e 94 2b 0f 	call	0x1e56	; 0x1e56 <mpap_getMode>
    1b2c:	82 30       	cpi	r24, 0x02	; 2
    1b2e:	2c f0       	brlt	.+10     	; 0x1b3a <__vector_9+0x40>
    1b30:	80 91 38 01 	lds	r24, 0x0138	; 0x800138 <ustep_sm0.6>
    1b34:	8f 5f       	subi	r24, 0xFF	; 255
    1b36:	80 93 38 01 	sts	0x0138, r24	; 0x800138 <ustep_sm0.6>
    1b3a:	80 91 38 01 	lds	r24, 0x0138	; 0x800138 <ustep_sm0.6>
    1b3e:	81 30       	cpi	r24, 0x01	; 1
    1b40:	c9 f5       	brne	.+114    	; 0x1bb4 <__vector_9+0xba>
    1b42:	e0 91 7e 00 	lds	r30, 0x007E	; 0x80007e <ustep_c.5>
    1b46:	ee 0f       	add	r30, r30
    1b48:	ff 0b       	sbc	r31, r31
    1b4a:	e6 55       	subi	r30, 0x56	; 86
    1b4c:	ff 4f       	sbci	r31, 0xFF	; 255
    1b4e:	80 81       	ld	r24, Z
    1b50:	91 81       	ldd	r25, Z+1	; 0x01
    1b52:	0e 94 aa 13 	call	0x2754	; 0x2754 <setdc>
    1b56:	80 91 7e 00 	lds	r24, 0x007E	; 0x80007e <ustep_c.5>
    1b5a:	91 e0       	ldi	r25, 0x01	; 1
    1b5c:	98 0f       	add	r25, r24
    1b5e:	84 30       	cpi	r24, 0x04	; 4
    1b60:	09 f1       	breq	.+66     	; 0x1ba4 <__vector_9+0xaa>
    1b62:	90 93 7e 00 	sts	0x007E, r25	; 0x80007e <ustep_c.5>
    1b66:	80 91 37 01 	lds	r24, 0x0137	; 0x800137 <cticks_1ms.4>
    1b6a:	8f 5f       	subi	r24, 0xFF	; 255
    1b6c:	80 93 37 01 	sts	0x0137, r24	; 0x800137 <cticks_1ms.4>
    1b70:	84 31       	cpi	r24, 0x14	; 20
    1b72:	39 f4       	brne	.+14     	; 0x1b82 <__vector_9+0x88>
    1b74:	80 91 3c 01 	lds	r24, 0x013C	; 0x80013c <isr_flag>
    1b78:	81 60       	ori	r24, 0x01	; 1
    1b7a:	80 93 3c 01 	sts	0x013C, r24	; 0x80013c <isr_flag>
    1b7e:	10 92 37 01 	sts	0x0137, r1	; 0x800137 <cticks_1ms.4>
    1b82:	ff 91       	pop	r31
    1b84:	ef 91       	pop	r30
    1b86:	bf 91       	pop	r27
    1b88:	af 91       	pop	r26
    1b8a:	9f 91       	pop	r25
    1b8c:	8f 91       	pop	r24
    1b8e:	7f 91       	pop	r23
    1b90:	6f 91       	pop	r22
    1b92:	5f 91       	pop	r21
    1b94:	4f 91       	pop	r20
    1b96:	3f 91       	pop	r19
    1b98:	2f 91       	pop	r18
    1b9a:	0f 90       	pop	r0
    1b9c:	0f be       	out	0x3f, r0	; 63
    1b9e:	0f 90       	pop	r0
    1ba0:	1f 90       	pop	r1
    1ba2:	18 95       	reti
    1ba4:	10 92 7e 00 	sts	0x007E, r1	; 0x80007e <ustep_c.5>
    1ba8:	80 91 38 01 	lds	r24, 0x0138	; 0x800138 <ustep_sm0.6>
    1bac:	8f 5f       	subi	r24, 0xFF	; 255
    1bae:	80 93 38 01 	sts	0x0138, r24	; 0x800138 <ustep_sm0.6>
    1bb2:	d9 cf       	rjmp	.-78     	; 0x1b66 <__vector_9+0x6c>
    1bb4:	82 30       	cpi	r24, 0x02	; 2
    1bb6:	51 f4       	brne	.+20     	; 0x1bcc <__vector_9+0xd2>
    1bb8:	80 91 7e 00 	lds	r24, 0x007E	; 0x80007e <ustep_c.5>
    1bbc:	91 e0       	ldi	r25, 0x01	; 1
    1bbe:	98 0f       	add	r25, r24
    1bc0:	8f 31       	cpi	r24, 0x1F	; 31
    1bc2:	79 f6       	brne	.-98     	; 0x1b62 <__vector_9+0x68>
    1bc4:	83 e0       	ldi	r24, 0x03	; 3
    1bc6:	80 93 7e 00 	sts	0x007E, r24	; 0x80007e <ustep_c.5>
    1bca:	f1 cf       	rjmp	.-30     	; 0x1bae <__vector_9+0xb4>
    1bcc:	83 30       	cpi	r24, 0x03	; 3
    1bce:	59 f6       	brne	.-106    	; 0x1b66 <__vector_9+0x6c>
    1bd0:	e0 91 7e 00 	lds	r30, 0x007E	; 0x80007e <ustep_c.5>
    1bd4:	ee 0f       	add	r30, r30
    1bd6:	ff 0b       	sbc	r31, r31
    1bd8:	e6 55       	subi	r30, 0x56	; 86
    1bda:	ff 4f       	sbci	r31, 0xFF	; 255
    1bdc:	80 81       	ld	r24, Z
    1bde:	91 81       	ldd	r25, Z+1	; 0x01
    1be0:	0e 94 aa 13 	call	0x2754	; 0x2754 <setdc>
    1be4:	80 91 7e 00 	lds	r24, 0x007E	; 0x80007e <ustep_c.5>
    1be8:	81 50       	subi	r24, 0x01	; 1
    1bea:	87 fd       	sbrc	r24, 7
    1bec:	03 c0       	rjmp	.+6      	; 0x1bf4 <__vector_9+0xfa>
    1bee:	80 93 7e 00 	sts	0x007E, r24	; 0x80007e <ustep_c.5>
    1bf2:	b9 cf       	rjmp	.-142    	; 0x1b66 <__vector_9+0x6c>
    1bf4:	81 e0       	ldi	r24, 0x01	; 1
    1bf6:	80 93 7e 00 	sts	0x007E, r24	; 0x80007e <ustep_c.5>
    1bfa:	10 92 38 01 	sts	0x0138, r1	; 0x800138 <ustep_sm0.6>
    1bfe:	82 e2       	ldi	r24, 0x22	; 34
    1c00:	90 e0       	ldi	r25, 0x00	; 0
    1c02:	0e 94 aa 13 	call	0x2754	; 0x2754 <setdc>
    1c06:	af cf       	rjmp	.-162    	; 0x1b66 <__vector_9+0x6c>

00001c08 <error_job>:
    1c08:	cf 93       	push	r28
    1c0a:	df 93       	push	r29
    1c0c:	00 d0       	rcall	.+0      	; 0x1c0e <error_job+0x6>
    1c0e:	00 d0       	rcall	.+0      	; 0x1c10 <error_job+0x8>
    1c10:	00 d0       	rcall	.+0      	; 0x1c12 <error_job+0xa>
    1c12:	cd b7       	in	r28, 0x3d	; 61
    1c14:	de b7       	in	r29, 0x3e	; 62
    1c16:	0e 94 dc 0c 	call	0x19b8	; 0x19b8 <is_oilLevel>
    1c1a:	90 91 25 01 	lds	r25, 0x0125	; 0x800125 <check_oilLevel_data>
    1c1e:	91 11       	cpse	r25, r1
    1c20:	0d c0       	rjmp	.+26     	; 0x1c3c <error_job+0x34>
    1c22:	81 11       	cpse	r24, r1
    1c24:	16 c0       	rjmp	.+44     	; 0x1c52 <error_job+0x4a>
    1c26:	80 91 4d 01 	lds	r24, 0x014D	; 0x80014d <pulsonic>
    1c2a:	81 60       	ori	r24, 0x01	; 1
    1c2c:	80 93 4d 01 	sts	0x014D, r24	; 0x80014d <pulsonic>
    1c30:	81 e0       	ldi	r24, 0x01	; 1
    1c32:	80 93 25 01 	sts	0x0125, r24	; 0x800125 <check_oilLevel_data>
    1c36:	10 92 26 01 	sts	0x0126, r1	; 0x800126 <check_oilLevel_data+0x1>
    1c3a:	0b c0       	rjmp	.+22     	; 0x1c52 <error_job+0x4a>
    1c3c:	91 30       	cpi	r25, 0x01	; 1
    1c3e:	49 f4       	brne	.+18     	; 0x1c52 <error_job+0x4a>
    1c40:	88 23       	and	r24, r24
    1c42:	b9 f0       	breq	.+46     	; 0x1c72 <error_job+0x6a>
    1c44:	80 91 4d 01 	lds	r24, 0x014D	; 0x80014d <pulsonic>
    1c48:	8e 7f       	andi	r24, 0xFE	; 254
    1c4a:	80 93 4d 01 	sts	0x014D, r24	; 0x80014d <pulsonic>
    1c4e:	10 92 25 01 	sts	0x0125, r1	; 0x800125 <check_oilLevel_data>
    1c52:	80 91 27 01 	lds	r24, 0x0127	; 0x800127 <chek_homeSensor_data>
    1c56:	81 11       	cpse	r24, r1
    1c58:	1c c0       	rjmp	.+56     	; 0x1c92 <error_job+0x8a>
    1c5a:	80 91 4d 01 	lds	r24, 0x014D	; 0x80014d <pulsonic>
    1c5e:	81 fb       	bst	r24, 1
    1c60:	99 27       	eor	r25, r25
    1c62:	90 f9       	bld	r25, 0
    1c64:	81 ff       	sbrs	r24, 1
    1c66:	26 c0       	rjmp	.+76     	; 0x1cb4 <error_job+0xac>
    1c68:	90 93 27 01 	sts	0x0127, r25	; 0x800127 <chek_homeSensor_data>
    1c6c:	10 92 28 01 	sts	0x0128, r1	; 0x800128 <chek_homeSensor_data+0x1>
    1c70:	21 c0       	rjmp	.+66     	; 0x1cb4 <error_job+0xac>
    1c72:	80 91 3a 01 	lds	r24, 0x013A	; 0x80013a <error_grantedToWriteDisp>
    1c76:	80 ff       	sbrs	r24, 0
    1c78:	de cf       	rjmp	.-68     	; 0x1c36 <error_job+0x2e>
    1c7a:	80 91 26 01 	lds	r24, 0x0126	; 0x800126 <check_oilLevel_data+0x1>
    1c7e:	81 11       	cpse	r24, r1
    1c80:	e8 cf       	rjmp	.-48     	; 0x1c52 <error_job+0x4a>
    1c82:	0e 94 f8 06 	call	0xdf0	; 0xdf0 <disp7s_qtyDisp_writeText_NO_OIL>
    1c86:	80 91 26 01 	lds	r24, 0x0126	; 0x800126 <check_oilLevel_data+0x1>
    1c8a:	8f 5f       	subi	r24, 0xFF	; 255
    1c8c:	80 93 26 01 	sts	0x0126, r24	; 0x800126 <check_oilLevel_data+0x1>
    1c90:	e0 cf       	rjmp	.-64     	; 0x1c52 <error_job+0x4a>
    1c92:	81 30       	cpi	r24, 0x01	; 1
    1c94:	79 f4       	brne	.+30     	; 0x1cb4 <error_job+0xac>
    1c96:	80 91 3a 01 	lds	r24, 0x013A	; 0x80013a <error_grantedToWriteDisp>
    1c9a:	81 ff       	sbrs	r24, 1
    1c9c:	e7 cf       	rjmp	.-50     	; 0x1c6c <error_job+0x64>
    1c9e:	80 91 28 01 	lds	r24, 0x0128	; 0x800128 <chek_homeSensor_data+0x1>
    1ca2:	81 11       	cpse	r24, r1
    1ca4:	07 c0       	rjmp	.+14     	; 0x1cb4 <error_job+0xac>
    1ca6:	0e 94 8d 08 	call	0x111a	; 0x111a <disp7s_qtyDisp_writeText_NO_HOME_SENSOR>
    1caa:	80 91 28 01 	lds	r24, 0x0128	; 0x800128 <chek_homeSensor_data+0x1>
    1cae:	8f 5f       	subi	r24, 0xFF	; 255
    1cb0:	80 93 28 01 	sts	0x0128, r24	; 0x800128 <chek_homeSensor_data+0x1>
    1cb4:	80 91 36 01 	lds	r24, 0x0136	; 0x800136 <sm0.2>
    1cb8:	81 11       	cpse	r24, r1
    1cba:	63 c0       	rjmp	.+198    	; 0x1d82 <error_job+0x17a>
    1cbc:	80 91 7c 00 	lds	r24, 0x007C	; 0x80007c <i.1>
    1cc0:	91 e0       	ldi	r25, 0x01	; 1
    1cc2:	98 0f       	add	r25, r24
    1cc4:	87 30       	cpi	r24, 0x07	; 7
    1cc6:	09 f4       	brne	.+2      	; 0x1cca <error_job+0xc2>
    1cc8:	59 c0       	rjmp	.+178    	; 0x1d7c <error_job+0x174>
    1cca:	90 93 7c 00 	sts	0x007C, r25	; 0x80007c <i.1>
    1cce:	80 91 4d 01 	lds	r24, 0x014D	; 0x80014d <pulsonic>
    1cd2:	90 91 7c 00 	lds	r25, 0x007C	; 0x80007c <i.1>
    1cd6:	21 e0       	ldi	r18, 0x01	; 1
    1cd8:	30 e0       	ldi	r19, 0x00	; 0
    1cda:	01 c0       	rjmp	.+2      	; 0x1cde <error_job+0xd6>
    1cdc:	22 0f       	add	r18, r18
    1cde:	9a 95       	dec	r25
    1ce0:	ea f7       	brpl	.-6      	; 0x1cdc <error_job+0xd4>
    1ce2:	82 23       	and	r24, r18
    1ce4:	49 f0       	breq	.+18     	; 0x1cf8 <error_job+0xf0>
    1ce6:	80 93 3a 01 	sts	0x013A, r24	; 0x80013a <error_grantedToWriteDisp>
    1cea:	10 92 35 01 	sts	0x0135, r1	; 0x800135 <c.0+0x1>
    1cee:	10 92 34 01 	sts	0x0134, r1	; 0x800134 <c.0>
    1cf2:	81 e0       	ldi	r24, 0x01	; 1
    1cf4:	80 93 36 01 	sts	0x0136, r24	; 0x800136 <sm0.2>
    1cf8:	90 91 4d 01 	lds	r25, 0x014D	; 0x80014d <pulsonic>
    1cfc:	80 91 7d 00 	lds	r24, 0x007D	; 0x80007d <errorPacked_last.3>
    1d00:	98 17       	cp	r25, r24
    1d02:	09 f4       	brne	.+2      	; 0x1d06 <error_job+0xfe>
    1d04:	93 c0       	rjmp	.+294    	; 0x1e2c <error_job+0x224>
    1d06:	80 91 4d 01 	lds	r24, 0x014D	; 0x80014d <pulsonic>
    1d0a:	80 93 7d 00 	sts	0x007D, r24	; 0x80007d <errorPacked_last.3>
    1d0e:	88 23       	and	r24, r24
    1d10:	09 f4       	brne	.+2      	; 0x1d14 <error_job+0x10c>
    1d12:	61 c0       	rjmp	.+194    	; 0x1dd6 <error_job+0x1ce>
    1d14:	0e 94 2e 0f 	call	0x1e5c	; 0x1e5c <mpap_stall>
    1d18:	0e 94 2d 13 	call	0x265a	; 0x265a <pump_stop>
    1d1c:	81 e0       	ldi	r24, 0x01	; 1
    1d1e:	0e 94 9a 08 	call	0x1134	; 0x1134 <flushAllMode_cmd>
    1d22:	82 e0       	ldi	r24, 0x02	; 2
    1d24:	80 93 30 01 	sts	0x0130, r24	; 0x800130 <funcMach>
    1d28:	93 98       	cbi	0x12, 3	; 18
    1d2a:	85 e0       	ldi	r24, 0x05	; 5
    1d2c:	ec ed       	ldi	r30, 0xDC	; 220
    1d2e:	f2 e0       	ldi	r31, 0x02	; 2
    1d30:	aa e2       	ldi	r26, 0x2A	; 42
    1d32:	b1 e0       	ldi	r27, 0x01	; 1
    1d34:	01 90       	ld	r0, Z+
    1d36:	0d 92       	st	X+, r0
    1d38:	8a 95       	dec	r24
    1d3a:	e1 f7       	brne	.-8      	; 0x1d34 <error_job+0x12c>
    1d3c:	0e 94 7d 0c 	call	0x18fa	; 0x18fa <ikb_flush>
    1d40:	86 e0       	ldi	r24, 0x06	; 6
    1d42:	e0 ea       	ldi	r30, 0xA0	; 160
    1d44:	f0 e0       	ldi	r31, 0x00	; 0
    1d46:	de 01       	movw	r26, r28
    1d48:	11 96       	adiw	r26, 0x01	; 1
    1d4a:	01 90       	ld	r0, Z+
    1d4c:	0d 92       	st	X+, r0
    1d4e:	8a 95       	dec	r24
    1d50:	e1 f7       	brne	.-8      	; 0x1d4a <error_job+0x142>
    1d52:	29 81       	ldd	r18, Y+1	; 0x01
    1d54:	21 60       	ori	r18, 0x01	; 1
    1d56:	3a 81       	ldd	r19, Y+2	; 0x02
    1d58:	4b 81       	ldd	r20, Y+3	; 0x03
    1d5a:	5c 81       	ldd	r21, Y+4	; 0x04
    1d5c:	6d 81       	ldd	r22, Y+5	; 0x05
    1d5e:	7e 81       	ldd	r23, Y+6	; 0x06
    1d60:	84 e0       	ldi	r24, 0x04	; 4
    1d62:	0e 94 80 09 	call	0x1300	; 0x1300 <ikb_setKeyProp>
    1d66:	81 e0       	ldi	r24, 0x01	; 1
    1d68:	26 96       	adiw	r28, 0x06	; 6
    1d6a:	0f b6       	in	r0, 0x3f	; 63
    1d6c:	f8 94       	cli
    1d6e:	de bf       	out	0x3e, r29	; 62
    1d70:	0f be       	out	0x3f, r0	; 63
    1d72:	cd bf       	out	0x3d, r28	; 61
    1d74:	df 91       	pop	r29
    1d76:	cf 91       	pop	r28
    1d78:	0c 94 3a 06 	jmp	0xc74	; 0xc74 <disp7s_setBlink_qty>
    1d7c:	10 92 7c 00 	sts	0x007C, r1	; 0x80007c <i.1>
    1d80:	a6 cf       	rjmp	.-180    	; 0x1cce <error_job+0xc6>
    1d82:	81 30       	cpi	r24, 0x01	; 1
    1d84:	09 f0       	breq	.+2      	; 0x1d88 <error_job+0x180>
    1d86:	b8 cf       	rjmp	.-144    	; 0x1cf8 <error_job+0xf0>
    1d88:	80 91 4d 01 	lds	r24, 0x014D	; 0x80014d <pulsonic>
    1d8c:	08 2e       	mov	r0, r24
    1d8e:	00 0c       	add	r0, r0
    1d90:	99 0b       	sbc	r25, r25
    1d92:	20 91 7c 00 	lds	r18, 0x007C	; 0x80007c <i.1>
    1d96:	02 c0       	rjmp	.+4      	; 0x1d9c <error_job+0x194>
    1d98:	95 95       	asr	r25
    1d9a:	87 95       	ror	r24
    1d9c:	2a 95       	dec	r18
    1d9e:	e2 f7       	brpl	.-8      	; 0x1d98 <error_job+0x190>
    1da0:	80 ff       	sbrs	r24, 0
    1da2:	16 c0       	rjmp	.+44     	; 0x1dd0 <error_job+0x1c8>
    1da4:	80 91 31 01 	lds	r24, 0x0131	; 0x800131 <smain>
    1da8:	80 ff       	sbrs	r24, 0
    1daa:	a6 cf       	rjmp	.-180    	; 0x1cf8 <error_job+0xf0>
    1dac:	80 91 34 01 	lds	r24, 0x0134	; 0x800134 <c.0>
    1db0:	90 91 35 01 	lds	r25, 0x0135	; 0x800135 <c.0+0x1>
    1db4:	01 96       	adiw	r24, 0x01	; 1
    1db6:	80 3d       	cpi	r24, 0xD0	; 208
    1db8:	27 e0       	ldi	r18, 0x07	; 7
    1dba:	92 07       	cpc	r25, r18
    1dbc:	28 f4       	brcc	.+10     	; 0x1dc8 <error_job+0x1c0>
    1dbe:	90 93 35 01 	sts	0x0135, r25	; 0x800135 <c.0+0x1>
    1dc2:	80 93 34 01 	sts	0x0134, r24	; 0x800134 <c.0>
    1dc6:	98 cf       	rjmp	.-208    	; 0x1cf8 <error_job+0xf0>
    1dc8:	10 92 35 01 	sts	0x0135, r1	; 0x800135 <c.0+0x1>
    1dcc:	10 92 34 01 	sts	0x0134, r1	; 0x800134 <c.0>
    1dd0:	10 92 36 01 	sts	0x0136, r1	; 0x800136 <sm0.2>
    1dd4:	91 cf       	rjmp	.-222    	; 0x1cf8 <error_job+0xf0>
    1dd6:	10 92 30 01 	sts	0x0130, r1	; 0x800130 <funcMach>
    1dda:	80 91 3b 01 	lds	r24, 0x013B	; 0x80013b <psFlag>
    1dde:	8a 7f       	andi	r24, 0xFA	; 250
    1de0:	81 60       	ori	r24, 0x01	; 1
    1de2:	80 93 3b 01 	sts	0x013B, r24	; 0x80013b <psFlag>
    1de6:	80 91 e1 02 	lds	r24, 0x02E1	; 0x8002e1 <pulsonic+0x194>
    1dea:	8e 7f       	andi	r24, 0xFE	; 254
    1dec:	80 93 e1 02 	sts	0x02E1, r24	; 0x8002e1 <pulsonic+0x194>
    1df0:	93 9a       	sbi	0x12, 3	; 18
    1df2:	10 92 2f 01 	sts	0x012F, r1	; 0x80012f <disp_owner>
    1df6:	8f ef       	ldi	r24, 0xFF	; 255
    1df8:	80 93 29 01 	sts	0x0129, r24	; 0x800129 <startSig_last>
    1dfc:	10 92 8e 00 	sts	0x008E, r1	; 0x80008e <visMode+0x2>
    1e00:	10 92 8f 00 	sts	0x008F, r1	; 0x80008f <visMode+0x3>
    1e04:	10 92 90 00 	sts	0x0090, r1	; 0x800090 <visMode+0x4>
    1e08:	10 92 91 00 	sts	0x0091, r1	; 0x800091 <visMode+0x5>
    1e0c:	10 92 92 00 	sts	0x0092, r1	; 0x800092 <visMode+0x6>
    1e10:	10 92 93 00 	sts	0x0093, r1	; 0x800093 <visMode+0x7>
    1e14:	10 92 25 01 	sts	0x0125, r1	; 0x800125 <check_oilLevel_data>
    1e18:	10 92 26 01 	sts	0x0126, r1	; 0x800126 <check_oilLevel_data+0x1>
    1e1c:	10 92 27 01 	sts	0x0127, r1	; 0x800127 <chek_homeSensor_data>
    1e20:	10 92 28 01 	sts	0x0128, r1	; 0x800128 <chek_homeSensor_data+0x1>
    1e24:	0e 94 19 0d 	call	0x1a32	; 0x1a32 <mykb_layout0>
    1e28:	80 e0       	ldi	r24, 0x00	; 0
    1e2a:	9e cf       	rjmp	.-196    	; 0x1d68 <error_job+0x160>
    1e2c:	26 96       	adiw	r28, 0x06	; 6
    1e2e:	0f b6       	in	r0, 0x3f	; 63
    1e30:	f8 94       	cli
    1e32:	de bf       	out	0x3e, r29	; 62
    1e34:	0f be       	out	0x3f, r0	; 63
    1e36:	cd bf       	out	0x3d, r28	; 61
    1e38:	df 91       	pop	r29
    1e3a:	cf 91       	pop	r28
    1e3c:	08 95       	ret

00001e3e <_mpap_step1>:
    1e3e:	81 ef       	ldi	r24, 0xF1	; 241
    1e40:	85 bb       	out	0x15, r24	; 21
    1e42:	08 95       	ret

00001e44 <_mpap_step2>:
    1e44:	88 ef       	ldi	r24, 0xF8	; 248
    1e46:	85 bb       	out	0x15, r24	; 21
    1e48:	08 95       	ret

00001e4a <_mpap_step3>:
    1e4a:	84 ef       	ldi	r24, 0xF4	; 244
    1e4c:	85 bb       	out	0x15, r24	; 21
    1e4e:	08 95       	ret

00001e50 <_mpap_step4>:
    1e50:	82 ef       	ldi	r24, 0xF2	; 242
    1e52:	85 bb       	out	0x15, r24	; 21
    1e54:	08 95       	ret

00001e56 <mpap_getMode>:
    1e56:	80 91 45 01 	lds	r24, 0x0145	; 0x800145 <mpap+0x7>
    1e5a:	08 95       	ret

00001e5c <mpap_stall>:
    1e5c:	81 e0       	ldi	r24, 0x01	; 1
    1e5e:	80 93 45 01 	sts	0x0145, r24	; 0x800145 <mpap+0x7>
    1e62:	08 95       	ret

00001e64 <mpap_doMovement>:
    1e64:	9c 01       	movw	r18, r24
    1e66:	89 2b       	or	r24, r25
    1e68:	81 f0       	breq	.+32     	; 0x1e8a <mpap_doMovement+0x26>
    1e6a:	81 e0       	ldi	r24, 0x01	; 1
    1e6c:	37 fd       	sbrc	r19, 7
    1e6e:	8f ef       	ldi	r24, 0xFF	; 255
    1e70:	80 93 44 01 	sts	0x0144, r24	; 0x800144 <mpap+0x6>
    1e74:	30 93 43 01 	sts	0x0143, r19	; 0x800143 <mpap+0x5>
    1e78:	20 93 42 01 	sts	0x0142, r18	; 0x800142 <mpap+0x4>
    1e7c:	10 92 41 01 	sts	0x0141, r1	; 0x800141 <mpap+0x3>
    1e80:	10 92 40 01 	sts	0x0140, r1	; 0x800140 <mpap+0x2>
    1e84:	60 93 45 01 	sts	0x0145, r22	; 0x800145 <mpap+0x7>
    1e88:	08 95       	ret
    1e8a:	10 92 45 01 	sts	0x0145, r1	; 0x800145 <mpap+0x7>
    1e8e:	08 95       	ret

00001e90 <mpap_get_numSteps_current>:
    1e90:	80 91 3e 01 	lds	r24, 0x013E	; 0x80013e <mpap>
    1e94:	90 91 3f 01 	lds	r25, 0x013F	; 0x80013f <mpap+0x1>
    1e98:	08 95       	ret

00001e9a <mpap_setup_searchFirstPointHomeSensor>:
    1e9a:	ee e3       	ldi	r30, 0x3E	; 62
    1e9c:	f1 e0       	ldi	r31, 0x01	; 1
    1e9e:	81 e0       	ldi	r24, 0x01	; 1
    1ea0:	86 83       	std	Z+6, r24	; 0x06
    1ea2:	88 ed       	ldi	r24, 0xD8	; 216
    1ea4:	9e e0       	ldi	r25, 0x0E	; 14
    1ea6:	95 83       	std	Z+5, r25	; 0x05
    1ea8:	84 83       	std	Z+4, r24	; 0x04
    1eaa:	13 82       	std	Z+3, r1	; 0x03
    1eac:	12 82       	std	Z+2, r1	; 0x02
    1eae:	82 e0       	ldi	r24, 0x02	; 2
    1eb0:	87 83       	std	Z+7, r24	; 0x07
    1eb2:	08 95       	ret

00001eb4 <mpap_do1step>:
    1eb4:	90 91 7f 00 	lds	r25, 0x007F	; 0x80007f <i.2>
    1eb8:	89 0f       	add	r24, r25
    1eba:	84 30       	cpi	r24, 0x04	; 4
    1ebc:	64 f0       	brlt	.+24     	; 0x1ed6 <mpap_do1step+0x22>
    1ebe:	10 92 7f 00 	sts	0x007F, r1	; 0x80007f <i.2>
    1ec2:	e0 91 7f 00 	lds	r30, 0x007F	; 0x80007f <i.2>
    1ec6:	ee 0f       	add	r30, r30
    1ec8:	ff 0b       	sbc	r31, r31
    1eca:	e0 58       	subi	r30, 0x80	; 128
    1ecc:	ff 4f       	sbci	r31, 0xFF	; 255
    1ece:	01 90       	ld	r0, Z+
    1ed0:	f0 81       	ld	r31, Z
    1ed2:	e0 2d       	mov	r30, r0
    1ed4:	09 94       	ijmp
    1ed6:	87 fd       	sbrc	r24, 7
    1ed8:	03 c0       	rjmp	.+6      	; 0x1ee0 <mpap_do1step+0x2c>
    1eda:	80 93 7f 00 	sts	0x007F, r24	; 0x80007f <i.2>
    1ede:	f1 cf       	rjmp	.-30     	; 0x1ec2 <mpap_do1step+0xe>
    1ee0:	83 e0       	ldi	r24, 0x03	; 3
    1ee2:	fb cf       	rjmp	.-10     	; 0x1eda <mpap_do1step+0x26>

00001ee4 <mpap_job>:
    1ee4:	80 91 45 01 	lds	r24, 0x0145	; 0x800145 <mpap+0x7>
    1ee8:	83 30       	cpi	r24, 0x03	; 3
    1eea:	09 f0       	breq	.+2      	; 0x1eee <mpap_job+0xa>
    1eec:	86 c0       	rjmp	.+268    	; 0x1ffa <mpap_job+0x116>
    1eee:	80 91 42 01 	lds	r24, 0x0142	; 0x800142 <mpap+0x4>
    1ef2:	90 91 43 01 	lds	r25, 0x0143	; 0x800143 <mpap+0x5>
    1ef6:	89 2b       	or	r24, r25
    1ef8:	09 f4       	brne	.+2      	; 0x1efc <mpap_job+0x18>
    1efa:	5f c0       	rjmp	.+190    	; 0x1fba <mpap_job+0xd6>
    1efc:	80 91 44 01 	lds	r24, 0x0144	; 0x800144 <mpap+0x6>
    1f00:	0e 94 5a 0f 	call	0x1eb4	; 0x1eb4 <mpap_do1step>
    1f04:	20 91 44 01 	lds	r18, 0x0144	; 0x800144 <mpap+0x6>
    1f08:	80 91 40 01 	lds	r24, 0x0140	; 0x800140 <mpap+0x2>
    1f0c:	90 91 41 01 	lds	r25, 0x0141	; 0x800141 <mpap+0x3>
    1f10:	82 0f       	add	r24, r18
    1f12:	91 1d       	adc	r25, r1
    1f14:	27 fd       	sbrc	r18, 7
    1f16:	9a 95       	dec	r25
    1f18:	90 93 41 01 	sts	0x0141, r25	; 0x800141 <mpap+0x3>
    1f1c:	80 93 40 01 	sts	0x0140, r24	; 0x800140 <mpap+0x2>
    1f20:	80 b3       	in	r24, 0x10	; 16
    1f22:	88 1f       	adc	r24, r24
    1f24:	88 27       	eor	r24, r24
    1f26:	88 1f       	adc	r24, r24
    1f28:	20 91 4a 01 	lds	r18, 0x014A	; 0x80014a <s.1>
    1f2c:	30 91 4b 01 	lds	r19, 0x014B	; 0x80014b <s.1+0x1>
    1f30:	23 2b       	or	r18, r19
    1f32:	09 f0       	breq	.+2      	; 0x1f36 <mpap_job+0x52>
    1f34:	4d c0       	rjmp	.+154    	; 0x1fd0 <mpap_job+0xec>
    1f36:	81 11       	cpse	r24, r1
    1f38:	53 c0       	rjmp	.+166    	; 0x1fe0 <mpap_job+0xfc>
    1f3a:	21 e0       	ldi	r18, 0x01	; 1
    1f3c:	30 e0       	ldi	r19, 0x00	; 0
    1f3e:	30 93 4b 01 	sts	0x014B, r19	; 0x80014b <s.1+0x1>
    1f42:	20 93 4a 01 	sts	0x014A, r18	; 0x80014a <s.1>
    1f46:	40 91 46 01 	lds	r20, 0x0146	; 0x800146 <countMaxStep.0>
    1f4a:	50 91 47 01 	lds	r21, 0x0147	; 0x800147 <countMaxStep.0+0x1>
    1f4e:	60 91 48 01 	lds	r22, 0x0148	; 0x800148 <countMaxStep.0+0x2>
    1f52:	70 91 49 01 	lds	r23, 0x0149	; 0x800149 <countMaxStep.0+0x3>
    1f56:	4f 5f       	subi	r20, 0xFF	; 255
    1f58:	5f 4f       	sbci	r21, 0xFF	; 255
    1f5a:	6f 4f       	sbci	r22, 0xFF	; 255
    1f5c:	7f 4f       	sbci	r23, 0xFF	; 255
    1f5e:	40 93 46 01 	sts	0x0146, r20	; 0x800146 <countMaxStep.0>
    1f62:	50 93 47 01 	sts	0x0147, r21	; 0x800147 <countMaxStep.0+0x1>
    1f66:	60 93 48 01 	sts	0x0148, r22	; 0x800148 <countMaxStep.0+0x2>
    1f6a:	70 93 49 01 	sts	0x0149, r23	; 0x800149 <countMaxStep.0+0x3>
    1f6e:	41 32       	cpi	r20, 0x21	; 33
    1f70:	5c 41       	sbci	r21, 0x1C	; 28
    1f72:	61 05       	cpc	r22, r1
    1f74:	71 05       	cpc	r23, r1
    1f76:	b4 f5       	brge	.+108    	; 0x1fe4 <mpap_job+0x100>
    1f78:	81 30       	cpi	r24, 0x01	; 1
    1f7a:	f9 f4       	brne	.+62     	; 0x1fba <mpap_job+0xd6>
    1f7c:	10 92 43 01 	sts	0x0143, r1	; 0x800143 <mpap+0x5>
    1f80:	10 92 42 01 	sts	0x0142, r1	; 0x800142 <mpap+0x4>
    1f84:	10 92 46 01 	sts	0x0146, r1	; 0x800146 <countMaxStep.0>
    1f88:	10 92 47 01 	sts	0x0147, r1	; 0x800147 <countMaxStep.0+0x1>
    1f8c:	10 92 48 01 	sts	0x0148, r1	; 0x800148 <countMaxStep.0+0x2>
    1f90:	10 92 49 01 	sts	0x0149, r1	; 0x800149 <countMaxStep.0+0x3>
    1f94:	10 92 4b 01 	sts	0x014B, r1	; 0x80014b <s.1+0x1>
    1f98:	10 92 4a 01 	sts	0x014A, r1	; 0x80014a <s.1>
    1f9c:	81 30       	cpi	r24, 0x01	; 1
    1f9e:	21 f5       	brne	.+72     	; 0x1fe8 <mpap_job+0x104>
    1fa0:	80 91 4d 01 	lds	r24, 0x014D	; 0x80014d <pulsonic>
    1fa4:	8d 7f       	andi	r24, 0xFD	; 253
    1fa6:	80 93 4d 01 	sts	0x014D, r24	; 0x80014d <pulsonic>
    1faa:	80 91 e1 02 	lds	r24, 0x02E1	; 0x8002e1 <pulsonic+0x194>
    1fae:	81 60       	ori	r24, 0x01	; 1
    1fb0:	80 93 e1 02 	sts	0x02E1, r24	; 0x8002e1 <pulsonic+0x194>
    1fb4:	81 e0       	ldi	r24, 0x01	; 1
    1fb6:	80 93 45 01 	sts	0x0145, r24	; 0x800145 <mpap+0x7>
    1fba:	80 91 45 01 	lds	r24, 0x0145	; 0x800145 <mpap+0x7>
    1fbe:	81 30       	cpi	r24, 0x01	; 1
    1fc0:	31 f4       	brne	.+12     	; 0x1fce <mpap_job+0xea>
    1fc2:	10 92 43 01 	sts	0x0143, r1	; 0x800143 <mpap+0x5>
    1fc6:	10 92 42 01 	sts	0x0142, r1	; 0x800142 <mpap+0x4>
    1fca:	10 92 45 01 	sts	0x0145, r1	; 0x800145 <mpap+0x7>
    1fce:	08 95       	ret
    1fd0:	81 30       	cpi	r24, 0x01	; 1
    1fd2:	09 f0       	breq	.+2      	; 0x1fd6 <mpap_job+0xf2>
    1fd4:	b8 cf       	rjmp	.-144    	; 0x1f46 <mpap_job+0x62>
    1fd6:	10 92 3f 01 	sts	0x013F, r1	; 0x80013f <mpap+0x1>
    1fda:	10 92 3e 01 	sts	0x013E, r1	; 0x80013e <mpap>
    1fde:	b3 cf       	rjmp	.-154    	; 0x1f46 <mpap_job+0x62>
    1fe0:	80 e0       	ldi	r24, 0x00	; 0
    1fe2:	b1 cf       	rjmp	.-158    	; 0x1f46 <mpap_job+0x62>
    1fe4:	82 e0       	ldi	r24, 0x02	; 2
    1fe6:	ca cf       	rjmp	.-108    	; 0x1f7c <mpap_job+0x98>
    1fe8:	80 91 4d 01 	lds	r24, 0x014D	; 0x80014d <pulsonic>
    1fec:	82 60       	ori	r24, 0x02	; 2
    1fee:	80 93 4d 01 	sts	0x014D, r24	; 0x80014d <pulsonic>
    1ff2:	80 91 e1 02 	lds	r24, 0x02E1	; 0x8002e1 <pulsonic+0x194>
    1ff6:	8e 7f       	andi	r24, 0xFE	; 254
    1ff8:	db cf       	rjmp	.-74     	; 0x1fb0 <mpap_job+0xcc>
    1ffa:	80 91 45 01 	lds	r24, 0x0145	; 0x800145 <mpap+0x7>
    1ffe:	82 30       	cpi	r24, 0x02	; 2
    2000:	09 f0       	breq	.+2      	; 0x2004 <mpap_job+0x120>
    2002:	50 c0       	rjmp	.+160    	; 0x20a4 <mpap_job+0x1c0>
    2004:	80 91 42 01 	lds	r24, 0x0142	; 0x800142 <mpap+0x4>
    2008:	90 91 43 01 	lds	r25, 0x0143	; 0x800143 <mpap+0x5>
    200c:	89 2b       	or	r24, r25
    200e:	a9 f2       	breq	.-86     	; 0x1fba <mpap_job+0xd6>
    2010:	80 91 44 01 	lds	r24, 0x0144	; 0x800144 <mpap+0x6>
    2014:	0e 94 5a 0f 	call	0x1eb4	; 0x1eb4 <mpap_do1step>
    2018:	20 91 44 01 	lds	r18, 0x0144	; 0x800144 <mpap+0x6>
    201c:	80 91 40 01 	lds	r24, 0x0140	; 0x800140 <mpap+0x2>
    2020:	90 91 41 01 	lds	r25, 0x0141	; 0x800141 <mpap+0x3>
    2024:	82 0f       	add	r24, r18
    2026:	91 1d       	adc	r25, r1
    2028:	27 fd       	sbrc	r18, 7
    202a:	9a 95       	dec	r25
    202c:	90 93 41 01 	sts	0x0141, r25	; 0x800141 <mpap+0x3>
    2030:	80 93 40 01 	sts	0x0140, r24	; 0x800140 <mpap+0x2>
    2034:	20 91 44 01 	lds	r18, 0x0144	; 0x800144 <mpap+0x6>
    2038:	80 91 3e 01 	lds	r24, 0x013E	; 0x80013e <mpap>
    203c:	90 91 3f 01 	lds	r25, 0x013F	; 0x80013f <mpap+0x1>
    2040:	82 0f       	add	r24, r18
    2042:	91 1d       	adc	r25, r1
    2044:	27 fd       	sbrc	r18, 7
    2046:	9a 95       	dec	r25
    2048:	90 93 3f 01 	sts	0x013F, r25	; 0x80013f <mpap+0x1>
    204c:	80 93 3e 01 	sts	0x013E, r24	; 0x80013e <mpap>
    2050:	87 9b       	sbis	0x10, 7	; 16
    2052:	1b c0       	rjmp	.+54     	; 0x208a <mpap_job+0x1a6>
    2054:	20 91 40 01 	lds	r18, 0x0140	; 0x800140 <mpap+0x2>
    2058:	30 91 41 01 	lds	r19, 0x0141	; 0x800141 <mpap+0x3>
    205c:	80 91 42 01 	lds	r24, 0x0142	; 0x800142 <mpap+0x4>
    2060:	90 91 43 01 	lds	r25, 0x0143	; 0x800143 <mpap+0x5>
    2064:	28 17       	cp	r18, r24
    2066:	39 07       	cpc	r19, r25
    2068:	09 f0       	breq	.+2      	; 0x206c <mpap_job+0x188>
    206a:	a7 cf       	rjmp	.-178    	; 0x1fba <mpap_job+0xd6>
    206c:	10 92 43 01 	sts	0x0143, r1	; 0x800143 <mpap+0x5>
    2070:	10 92 42 01 	sts	0x0142, r1	; 0x800142 <mpap+0x4>
    2074:	80 91 e1 02 	lds	r24, 0x02E1	; 0x8002e1 <pulsonic+0x194>
    2078:	8e 7f       	andi	r24, 0xFE	; 254
    207a:	80 93 e1 02 	sts	0x02E1, r24	; 0x8002e1 <pulsonic+0x194>
    207e:	80 91 4d 01 	lds	r24, 0x014D	; 0x80014d <pulsonic>
    2082:	82 60       	ori	r24, 0x02	; 2
    2084:	80 93 4d 01 	sts	0x014D, r24	; 0x80014d <pulsonic>
    2088:	95 cf       	rjmp	.-214    	; 0x1fb4 <mpap_job+0xd0>
    208a:	10 92 43 01 	sts	0x0143, r1	; 0x800143 <mpap+0x5>
    208e:	10 92 42 01 	sts	0x0142, r1	; 0x800142 <mpap+0x4>
    2092:	80 91 e1 02 	lds	r24, 0x02E1	; 0x8002e1 <pulsonic+0x194>
    2096:	81 60       	ori	r24, 0x01	; 1
    2098:	80 93 e1 02 	sts	0x02E1, r24	; 0x8002e1 <pulsonic+0x194>
    209c:	80 91 4d 01 	lds	r24, 0x014D	; 0x80014d <pulsonic>
    20a0:	8d 7f       	andi	r24, 0xFD	; 253
    20a2:	f0 cf       	rjmp	.-32     	; 0x2084 <mpap_job+0x1a0>
    20a4:	80 91 45 01 	lds	r24, 0x0145	; 0x800145 <mpap+0x7>
    20a8:	84 30       	cpi	r24, 0x04	; 4
    20aa:	09 f0       	breq	.+2      	; 0x20ae <mpap_job+0x1ca>
    20ac:	86 cf       	rjmp	.-244    	; 0x1fba <mpap_job+0xd6>
    20ae:	80 91 42 01 	lds	r24, 0x0142	; 0x800142 <mpap+0x4>
    20b2:	90 91 43 01 	lds	r25, 0x0143	; 0x800143 <mpap+0x5>
    20b6:	89 2b       	or	r24, r25
    20b8:	09 f4       	brne	.+2      	; 0x20bc <mpap_job+0x1d8>
    20ba:	7c cf       	rjmp	.-264    	; 0x1fb4 <mpap_job+0xd0>
    20bc:	80 91 44 01 	lds	r24, 0x0144	; 0x800144 <mpap+0x6>
    20c0:	0e 94 5a 0f 	call	0x1eb4	; 0x1eb4 <mpap_do1step>
    20c4:	20 91 44 01 	lds	r18, 0x0144	; 0x800144 <mpap+0x6>
    20c8:	80 91 40 01 	lds	r24, 0x0140	; 0x800140 <mpap+0x2>
    20cc:	90 91 41 01 	lds	r25, 0x0141	; 0x800141 <mpap+0x3>
    20d0:	82 0f       	add	r24, r18
    20d2:	91 1d       	adc	r25, r1
    20d4:	27 fd       	sbrc	r18, 7
    20d6:	9a 95       	dec	r25
    20d8:	90 93 41 01 	sts	0x0141, r25	; 0x800141 <mpap+0x3>
    20dc:	80 93 40 01 	sts	0x0140, r24	; 0x800140 <mpap+0x2>
    20e0:	20 91 44 01 	lds	r18, 0x0144	; 0x800144 <mpap+0x6>
    20e4:	80 91 3e 01 	lds	r24, 0x013E	; 0x80013e <mpap>
    20e8:	90 91 3f 01 	lds	r25, 0x013F	; 0x80013f <mpap+0x1>
    20ec:	82 0f       	add	r24, r18
    20ee:	91 1d       	adc	r25, r1
    20f0:	27 fd       	sbrc	r18, 7
    20f2:	9a 95       	dec	r25
    20f4:	90 93 3f 01 	sts	0x013F, r25	; 0x80013f <mpap+0x1>
    20f8:	80 93 3e 01 	sts	0x013E, r24	; 0x80013e <mpap>
    20fc:	20 91 40 01 	lds	r18, 0x0140	; 0x800140 <mpap+0x2>
    2100:	30 91 41 01 	lds	r19, 0x0141	; 0x800141 <mpap+0x3>
    2104:	80 91 42 01 	lds	r24, 0x0142	; 0x800142 <mpap+0x4>
    2108:	90 91 43 01 	lds	r25, 0x0143	; 0x800143 <mpap+0x5>
    210c:	28 17       	cp	r18, r24
    210e:	39 07       	cpc	r19, r25
    2110:	09 f0       	breq	.+2      	; 0x2114 <mpap_job+0x230>
    2112:	53 cf       	rjmp	.-346    	; 0x1fba <mpap_job+0xd6>
    2114:	10 92 43 01 	sts	0x0143, r1	; 0x800143 <mpap+0x5>
    2118:	10 92 42 01 	sts	0x0142, r1	; 0x800142 <mpap+0x4>
    211c:	4b cf       	rjmp	.-362    	; 0x1fb4 <mpap_job+0xd0>

0000211e <mpap_movetoNozzle>:
    211e:	20 91 3e 01 	lds	r18, 0x013E	; 0x80013e <mpap>
    2122:	30 91 3f 01 	lds	r19, 0x013F	; 0x80013f <mpap+0x1>
    2126:	48 2f       	mov	r20, r24
    2128:	58 ec       	ldi	r21, 0xC8	; 200
    212a:	45 03       	mulsu	r20, r21
    212c:	c0 01       	movw	r24, r0
    212e:	11 24       	eor	r1, r1
    2130:	64 e0       	ldi	r22, 0x04	; 4
    2132:	82 1b       	sub	r24, r18
    2134:	93 0b       	sbc	r25, r19
    2136:	0c 94 32 0f 	jmp	0x1e64	; 0x1e64 <mpap_doMovement>

0000213a <mpap_isIdle>:
    213a:	90 91 45 01 	lds	r25, 0x0145	; 0x800145 <mpap+0x7>
    213e:	81 e0       	ldi	r24, 0x01	; 1
    2140:	91 11       	cpse	r25, r1
    2142:	80 e0       	ldi	r24, 0x00	; 0
    2144:	08 95       	ret

00002146 <mpap_homming_job_reset>:
    2146:	10 92 3d 01 	sts	0x013D, r1	; 0x80013d <homming>
    214a:	08 95       	ret

0000214c <mpap_homming_job>:
    214c:	cf 93       	push	r28
    214e:	c0 91 3d 01 	lds	r28, 0x013D	; 0x80013d <homming>
    2152:	c1 11       	cpse	r28, r1
    2154:	1b c0       	rjmp	.+54     	; 0x218c <mpap_homming_job+0x40>
    2156:	87 99       	sbic	0x10, 7	; 16
    2158:	15 c0       	rjmp	.+42     	; 0x2184 <mpap_homming_job+0x38>
    215a:	81 e0       	ldi	r24, 0x01	; 1
    215c:	80 93 44 01 	sts	0x0144, r24	; 0x800144 <mpap+0x6>
    2160:	20 e9       	ldi	r18, 0x90	; 144
    2162:	31 e0       	ldi	r19, 0x01	; 1
    2164:	30 93 43 01 	sts	0x0143, r19	; 0x800143 <mpap+0x5>
    2168:	20 93 42 01 	sts	0x0142, r18	; 0x800142 <mpap+0x4>
    216c:	10 92 41 01 	sts	0x0141, r1	; 0x800141 <mpap+0x3>
    2170:	10 92 40 01 	sts	0x0140, r1	; 0x800140 <mpap+0x2>
    2174:	94 e0       	ldi	r25, 0x04	; 4
    2176:	90 93 45 01 	sts	0x0145, r25	; 0x800145 <mpap+0x7>
    217a:	80 93 3d 01 	sts	0x013D, r24	; 0x80013d <homming>
    217e:	8c 2f       	mov	r24, r28
    2180:	cf 91       	pop	r28
    2182:	08 95       	ret
    2184:	0e 94 4d 0f 	call	0x1e9a	; 0x1e9a <mpap_setup_searchFirstPointHomeSensor>
    2188:	82 e0       	ldi	r24, 0x02	; 2
    218a:	f7 cf       	rjmp	.-18     	; 0x217a <mpap_homming_job+0x2e>
    218c:	c1 30       	cpi	r28, 0x01	; 1
    218e:	71 f4       	brne	.+28     	; 0x21ac <mpap_homming_job+0x60>
    2190:	0e 94 9d 10 	call	0x213a	; 0x213a <mpap_isIdle>
    2194:	81 11       	cpse	r24, r1
    2196:	02 c0       	rjmp	.+4      	; 0x219c <mpap_homming_job+0x50>
    2198:	c0 e0       	ldi	r28, 0x00	; 0
    219a:	f1 cf       	rjmp	.-30     	; 0x217e <mpap_homming_job+0x32>
    219c:	0e 94 4d 0f 	call	0x1e9a	; 0x1e9a <mpap_setup_searchFirstPointHomeSensor>
    21a0:	80 91 3d 01 	lds	r24, 0x013D	; 0x80013d <homming>
    21a4:	8f 5f       	subi	r24, 0xFF	; 255
    21a6:	80 93 3d 01 	sts	0x013D, r24	; 0x80013d <homming>
    21aa:	f6 cf       	rjmp	.-20     	; 0x2198 <mpap_homming_job+0x4c>
    21ac:	c2 30       	cpi	r28, 0x02	; 2
    21ae:	c9 f4       	brne	.+50     	; 0x21e2 <mpap_homming_job+0x96>
    21b0:	0e 94 9d 10 	call	0x213a	; 0x213a <mpap_isIdle>
    21b4:	88 23       	and	r24, r24
    21b6:	81 f3       	breq	.-32     	; 0x2198 <mpap_homming_job+0x4c>
    21b8:	80 91 4d 01 	lds	r24, 0x014D	; 0x80014d <pulsonic>
    21bc:	81 fd       	sbrc	r24, 1
    21be:	1c c0       	rjmp	.+56     	; 0x21f8 <mpap_homming_job+0xac>
    21c0:	81 e0       	ldi	r24, 0x01	; 1
    21c2:	80 93 44 01 	sts	0x0144, r24	; 0x800144 <mpap+0x6>
    21c6:	88 ec       	ldi	r24, 0xC8	; 200
    21c8:	90 e0       	ldi	r25, 0x00	; 0
    21ca:	90 93 43 01 	sts	0x0143, r25	; 0x800143 <mpap+0x5>
    21ce:	80 93 42 01 	sts	0x0142, r24	; 0x800142 <mpap+0x4>
    21d2:	10 92 41 01 	sts	0x0141, r1	; 0x800141 <mpap+0x3>
    21d6:	10 92 40 01 	sts	0x0140, r1	; 0x800140 <mpap+0x2>
    21da:	83 e0       	ldi	r24, 0x03	; 3
    21dc:	80 93 45 01 	sts	0x0145, r24	; 0x800145 <mpap+0x7>
    21e0:	df cf       	rjmp	.-66     	; 0x21a0 <mpap_homming_job+0x54>
    21e2:	c3 30       	cpi	r28, 0x03	; 3
    21e4:	c9 f6       	brne	.-78     	; 0x2198 <mpap_homming_job+0x4c>
    21e6:	0e 94 9d 10 	call	0x213a	; 0x213a <mpap_isIdle>
    21ea:	88 23       	and	r24, r24
    21ec:	a9 f2       	breq	.-86     	; 0x2198 <mpap_homming_job+0x4c>
    21ee:	80 91 4d 01 	lds	r24, 0x014D	; 0x80014d <pulsonic>
    21f2:	c2 e0       	ldi	r28, 0x02	; 2
    21f4:	81 ff       	sbrs	r24, 1
    21f6:	c1 e0       	ldi	r28, 0x01	; 1
    21f8:	10 92 3d 01 	sts	0x013D, r1	; 0x80013d <homming>
    21fc:	c0 cf       	rjmp	.-128    	; 0x217e <mpap_homming_job+0x32>

000021fe <motortest>:
    21fe:	82 e3       	ldi	r24, 0x32	; 50
    2200:	90 e0       	ldi	r25, 0x00	; 0
    2202:	51 e0       	ldi	r21, 0x01	; 1
    2204:	48 e0       	ldi	r20, 0x08	; 8
    2206:	34 e0       	ldi	r19, 0x04	; 4
    2208:	22 e0       	ldi	r18, 0x02	; 2
    220a:	55 bb       	out	0x15, r21	; 21
    220c:	ef ed       	ldi	r30, 0xDF	; 223
    220e:	fe e2       	ldi	r31, 0x2E	; 46
    2210:	31 97       	sbiw	r30, 0x01	; 1
    2212:	f1 f7       	brne	.-4      	; 0x2210 <motortest+0x12>
    2214:	00 c0       	rjmp	.+0      	; 0x2216 <motortest+0x18>
    2216:	00 00       	nop
    2218:	45 bb       	out	0x15, r20	; 21
    221a:	ef ed       	ldi	r30, 0xDF	; 223
    221c:	fe e2       	ldi	r31, 0x2E	; 46
    221e:	31 97       	sbiw	r30, 0x01	; 1
    2220:	f1 f7       	brne	.-4      	; 0x221e <motortest+0x20>
    2222:	00 c0       	rjmp	.+0      	; 0x2224 <motortest+0x26>
    2224:	00 00       	nop
    2226:	35 bb       	out	0x15, r19	; 21
    2228:	ef ed       	ldi	r30, 0xDF	; 223
    222a:	fe e2       	ldi	r31, 0x2E	; 46
    222c:	31 97       	sbiw	r30, 0x01	; 1
    222e:	f1 f7       	brne	.-4      	; 0x222c <motortest+0x2e>
    2230:	00 c0       	rjmp	.+0      	; 0x2232 <motortest+0x34>
    2232:	00 00       	nop
    2234:	25 bb       	out	0x15, r18	; 21
    2236:	ef ed       	ldi	r30, 0xDF	; 223
    2238:	fe e2       	ldi	r31, 0x2E	; 46
    223a:	31 97       	sbiw	r30, 0x01	; 1
    223c:	f1 f7       	brne	.-4      	; 0x223a <motortest+0x3c>
    223e:	00 c0       	rjmp	.+0      	; 0x2240 <motortest+0x42>
    2240:	00 00       	nop
    2242:	01 97       	sbiw	r24, 0x01	; 1
    2244:	11 f7       	brne	.-60     	; 0x220a <motortest+0xc>
    2246:	ff cf       	rjmp	.-2      	; 0x2246 <motortest+0x48>

00002248 <mpap_interrupt>:
    2248:	81 e0       	ldi	r24, 0x01	; 1
    224a:	80 93 44 01 	sts	0x0144, r24	; 0x800144 <mpap+0x6>
    224e:	88 ee       	ldi	r24, 0xE8	; 232
    2250:	93 e0       	ldi	r25, 0x03	; 3
    2252:	90 93 43 01 	sts	0x0143, r25	; 0x800143 <mpap+0x5>
    2256:	80 93 42 01 	sts	0x0142, r24	; 0x800142 <mpap+0x4>
    225a:	10 92 41 01 	sts	0x0141, r1	; 0x800141 <mpap+0x3>
    225e:	10 92 40 01 	sts	0x0140, r1	; 0x800140 <mpap+0x2>
    2262:	84 e0       	ldi	r24, 0x04	; 4
    2264:	80 93 45 01 	sts	0x0145, r24	; 0x800145 <mpap+0x7>
    2268:	89 b7       	in	r24, 0x39	; 57
    226a:	84 60       	ori	r24, 0x04	; 4
    226c:	89 bf       	out	0x39, r24	; 57
    226e:	78 94       	sei
    2270:	ff cf       	rjmp	.-2      	; 0x2270 <mpap_interrupt+0x28>

00002272 <nozzle_isEnabled>:
    2272:	cf 93       	push	r28
    2274:	df 93       	push	r29
    2276:	00 d0       	rcall	.+0      	; 0x2278 <nozzle_isEnabled+0x6>
    2278:	00 d0       	rcall	.+0      	; 0x227a <nozzle_isEnabled+0x8>
    227a:	0f 92       	push	r0
    227c:	cd b7       	in	r28, 0x3d	; 61
    227e:	de b7       	in	r29, 0x3e	; 62
    2280:	44 e1       	ldi	r20, 0x14	; 20
    2282:	48 9f       	mul	r20, r24
    2284:	90 01       	movw	r18, r0
    2286:	49 9f       	mul	r20, r25
    2288:	30 0d       	add	r19, r0
    228a:	11 24       	eor	r1, r1
    228c:	23 5b       	subi	r18, 0xB3	; 179
    228e:	3e 4f       	sbci	r19, 0xFE	; 254
    2290:	d9 01       	movw	r26, r18
    2292:	55 96       	adiw	r26, 0x15	; 21
    2294:	8d 91       	ld	r24, X+
    2296:	9d 91       	ld	r25, X+
    2298:	0d 90       	ld	r0, X+
    229a:	bc 91       	ld	r27, X
    229c:	a0 2d       	mov	r26, r0
    229e:	89 83       	std	Y+1, r24	; 0x01
    22a0:	9a 83       	std	Y+2, r25	; 0x02
    22a2:	ab 83       	std	Y+3, r26	; 0x03
    22a4:	bc 83       	std	Y+4, r27	; 0x04
    22a6:	b1 e0       	ldi	r27, 0x01	; 1
    22a8:	bd 83       	std	Y+5, r27	; 0x05
    22aa:	20 e0       	ldi	r18, 0x00	; 0
    22ac:	30 e0       	ldi	r19, 0x00	; 0
    22ae:	a9 01       	movw	r20, r18
    22b0:	69 81       	ldd	r22, Y+1	; 0x01
    22b2:	7a 81       	ldd	r23, Y+2	; 0x02
    22b4:	8b 81       	ldd	r24, Y+3	; 0x03
    22b6:	9c 81       	ldd	r25, Y+4	; 0x04
    22b8:	0e 94 52 18 	call	0x30a4	; 0x30a4 <__gesf2>
    22bc:	18 16       	cp	r1, r24
    22be:	0c f0       	brlt	.+2      	; 0x22c2 <nozzle_isEnabled+0x50>
    22c0:	1d 82       	std	Y+5, r1	; 0x05
    22c2:	8d 81       	ldd	r24, Y+5	; 0x05
    22c4:	0f 90       	pop	r0
    22c6:	0f 90       	pop	r0
    22c8:	0f 90       	pop	r0
    22ca:	0f 90       	pop	r0
    22cc:	0f 90       	pop	r0
    22ce:	df 91       	pop	r29
    22d0:	cf 91       	pop	r28
    22d2:	08 95       	ret

000022d4 <nozzle_getPosition>:
    22d4:	0e 94 48 0f 	call	0x1e90	; 0x1e90 <mpap_get_numSteps_current>
    22d8:	68 ec       	ldi	r22, 0xC8	; 200
    22da:	70 e0       	ldi	r23, 0x00	; 0
    22dc:	0e 94 5e 16 	call	0x2cbc	; 0x2cbc <__divmodhi4>
    22e0:	86 2f       	mov	r24, r22
    22e2:	08 95       	ret

000022e4 <nozzle_setPosition_reset>:
    22e4:	10 92 4c 01 	sts	0x014C, r1	; 0x80014c <sm0>
    22e8:	08 95       	ret

000022ea <nozzle_setPosition>:
    22ea:	cf 93       	push	r28
    22ec:	c8 2f       	mov	r28, r24
    22ee:	80 91 4c 01 	lds	r24, 0x014C	; 0x80014c <sm0>
    22f2:	81 11       	cpse	r24, r1
    22f4:	19 c0       	rjmp	.+50     	; 0x2328 <nozzle_setPosition+0x3e>
    22f6:	82 e0       	ldi	r24, 0x02	; 2
    22f8:	c1 11       	cpse	r28, r1
    22fa:	2e c0       	rjmp	.+92     	; 0x2358 <nozzle_setPosition+0x6e>
    22fc:	0e 94 48 0f 	call	0x1e90	; 0x1e90 <mpap_get_numSteps_current>
    2300:	9c 01       	movw	r18, r24
    2302:	89 2b       	or	r24, r25
    2304:	e9 f0       	breq	.+58     	; 0x2340 <nozzle_setPosition+0x56>
    2306:	29 34       	cpi	r18, 0x49	; 73
    2308:	3d 40       	sbci	r19, 0x0D	; 13
    230a:	4c f4       	brge	.+18     	; 0x231e <nozzle_setPosition+0x34>
    230c:	81 e1       	ldi	r24, 0x11	; 17
    230e:	0e 94 8f 10 	call	0x211e	; 0x211e <mpap_movetoNozzle>
    2312:	84 e0       	ldi	r24, 0x04	; 4
    2314:	80 93 4c 01 	sts	0x014C, r24	; 0x80014c <sm0>
    2318:	8c 2f       	mov	r24, r28
    231a:	cf 91       	pop	r28
    231c:	08 95       	ret
    231e:	82 e1       	ldi	r24, 0x12	; 18
    2320:	0e 94 8f 10 	call	0x211e	; 0x211e <mpap_movetoNozzle>
    2324:	81 e0       	ldi	r24, 0x01	; 1
    2326:	f6 cf       	rjmp	.-20     	; 0x2314 <nozzle_setPosition+0x2a>
    2328:	81 30       	cpi	r24, 0x01	; 1
    232a:	71 f4       	brne	.+28     	; 0x2348 <nozzle_setPosition+0x5e>
    232c:	0e 94 9d 10 	call	0x213a	; 0x213a <mpap_isIdle>
    2330:	81 11       	cpse	r24, r1
    2332:	02 c0       	rjmp	.+4      	; 0x2338 <nozzle_setPosition+0x4e>
    2334:	c0 e0       	ldi	r28, 0x00	; 0
    2336:	f0 cf       	rjmp	.-32     	; 0x2318 <nozzle_setPosition+0x2e>
    2338:	10 92 3f 01 	sts	0x013F, r1	; 0x80013f <mpap+0x1>
    233c:	10 92 3e 01 	sts	0x013E, r1	; 0x80013e <mpap>
    2340:	10 92 4c 01 	sts	0x014C, r1	; 0x80014c <sm0>
    2344:	c1 e0       	ldi	r28, 0x01	; 1
    2346:	e8 cf       	rjmp	.-48     	; 0x2318 <nozzle_setPosition+0x2e>
    2348:	82 30       	cpi	r24, 0x02	; 2
    234a:	49 f4       	brne	.+18     	; 0x235e <nozzle_setPosition+0x74>
    234c:	8c 2f       	mov	r24, r28
    234e:	0e 94 8f 10 	call	0x211e	; 0x211e <mpap_movetoNozzle>
    2352:	80 91 4c 01 	lds	r24, 0x014C	; 0x80014c <sm0>
    2356:	8f 5f       	subi	r24, 0xFF	; 255
    2358:	80 93 4c 01 	sts	0x014C, r24	; 0x80014c <sm0>
    235c:	eb cf       	rjmp	.-42     	; 0x2334 <nozzle_setPosition+0x4a>
    235e:	83 30       	cpi	r24, 0x03	; 3
    2360:	29 f4       	brne	.+10     	; 0x236c <nozzle_setPosition+0x82>
    2362:	0e 94 9d 10 	call	0x213a	; 0x213a <mpap_isIdle>
    2366:	81 11       	cpse	r24, r1
    2368:	eb cf       	rjmp	.-42     	; 0x2340 <nozzle_setPosition+0x56>
    236a:	e4 cf       	rjmp	.-56     	; 0x2334 <nozzle_setPosition+0x4a>
    236c:	84 30       	cpi	r24, 0x04	; 4
    236e:	51 f4       	brne	.+20     	; 0x2384 <nozzle_setPosition+0x9a>
    2370:	0e 94 9d 10 	call	0x213a	; 0x213a <mpap_isIdle>
    2374:	88 23       	and	r24, r24
    2376:	f1 f2       	breq	.-68     	; 0x2334 <nozzle_setPosition+0x4a>
    2378:	63 e0       	ldi	r22, 0x03	; 3
    237a:	88 ec       	ldi	r24, 0xC8	; 200
    237c:	90 e0       	ldi	r25, 0x00	; 0
    237e:	0e 94 32 0f 	call	0x1e64	; 0x1e64 <mpap_doMovement>
    2382:	e7 cf       	rjmp	.-50     	; 0x2352 <nozzle_setPosition+0x68>
    2384:	85 30       	cpi	r24, 0x05	; 5
    2386:	b1 f6       	brne	.-84     	; 0x2334 <nozzle_setPosition+0x4a>
    2388:	ec cf       	rjmp	.-40     	; 0x2362 <nozzle_setPosition+0x78>

0000238a <pulsonic_getTotalSum_mlh>:
    238a:	1f 93       	push	r17
    238c:	cf 93       	push	r28
    238e:	df 93       	push	r29
    2390:	00 d0       	rcall	.+0      	; 0x2392 <pulsonic_getTotalSum_mlh+0x8>
    2392:	00 d0       	rcall	.+0      	; 0x2394 <pulsonic_getTotalSum_mlh+0xa>
    2394:	00 d0       	rcall	.+0      	; 0x2396 <pulsonic_getTotalSum_mlh+0xc>
    2396:	cd b7       	in	r28, 0x3d	; 61
    2398:	de b7       	in	r29, 0x3e	; 62
    239a:	60 e0       	ldi	r22, 0x00	; 0
    239c:	70 e0       	ldi	r23, 0x00	; 0
    239e:	80 e0       	ldi	r24, 0x00	; 0
    23a0:	90 e0       	ldi	r25, 0x00	; 0
    23a2:	1e 82       	std	Y+6, r1	; 0x06
    23a4:	1d 82       	std	Y+5, r1	; 0x05
    23a6:	14 e1       	ldi	r17, 0x14	; 20
    23a8:	2d 81       	ldd	r18, Y+5	; 0x05
    23aa:	3e 81       	ldd	r19, Y+6	; 0x06
    23ac:	12 9f       	mul	r17, r18
    23ae:	f0 01       	movw	r30, r0
    23b0:	13 9f       	mul	r17, r19
    23b2:	f0 0d       	add	r31, r0
    23b4:	11 24       	eor	r1, r1
    23b6:	e3 5b       	subi	r30, 0xB3	; 179
    23b8:	fe 4f       	sbci	r31, 0xFE	; 254
    23ba:	25 89       	ldd	r18, Z+21	; 0x15
    23bc:	36 89       	ldd	r19, Z+22	; 0x16
    23be:	47 89       	ldd	r20, Z+23	; 0x17
    23c0:	50 8d       	ldd	r21, Z+24	; 0x18
    23c2:	69 83       	std	Y+1, r22	; 0x01
    23c4:	7a 83       	std	Y+2, r23	; 0x02
    23c6:	8b 83       	std	Y+3, r24	; 0x03
    23c8:	9c 83       	std	Y+4, r25	; 0x04
    23ca:	69 81       	ldd	r22, Y+1	; 0x01
    23cc:	7a 81       	ldd	r23, Y+2	; 0x02
    23ce:	8b 81       	ldd	r24, Y+3	; 0x03
    23d0:	9c 81       	ldd	r25, Y+4	; 0x04
    23d2:	0e 94 87 16 	call	0x2d0e	; 0x2d0e <__addsf3>
    23d6:	2d 81       	ldd	r18, Y+5	; 0x05
    23d8:	3e 81       	ldd	r19, Y+6	; 0x06
    23da:	2f 5f       	subi	r18, 0xFF	; 255
    23dc:	3f 4f       	sbci	r19, 0xFF	; 255
    23de:	3e 83       	std	Y+6, r19	; 0x06
    23e0:	2d 83       	std	Y+5, r18	; 0x05
    23e2:	22 31       	cpi	r18, 0x12	; 18
    23e4:	31 05       	cpc	r19, r1
    23e6:	01 f7       	brne	.-64     	; 0x23a8 <pulsonic_getTotalSum_mlh+0x1e>
    23e8:	69 83       	std	Y+1, r22	; 0x01
    23ea:	7a 83       	std	Y+2, r23	; 0x02
    23ec:	8b 83       	std	Y+3, r24	; 0x03
    23ee:	9c 83       	std	Y+4, r25	; 0x04
    23f0:	69 81       	ldd	r22, Y+1	; 0x01
    23f2:	7a 81       	ldd	r23, Y+2	; 0x02
    23f4:	8b 81       	ldd	r24, Y+3	; 0x03
    23f6:	9c 81       	ldd	r25, Y+4	; 0x04
    23f8:	26 96       	adiw	r28, 0x06	; 6
    23fa:	0f b6       	in	r0, 0x3f	; 63
    23fc:	f8 94       	cli
    23fe:	de bf       	out	0x3e, r29	; 62
    2400:	0f be       	out	0x3f, r0	; 63
    2402:	cd bf       	out	0x3d, r28	; 61
    2404:	df 91       	pop	r29
    2406:	cf 91       	pop	r28
    2408:	1f 91       	pop	r17
    240a:	08 95       	ret

0000240c <pulsonic_getNumNozzleAvailable>:
    240c:	1f 93       	push	r17
    240e:	cf 93       	push	r28
    2410:	df 93       	push	r29
    2412:	d0 e0       	ldi	r29, 0x00	; 0
    2414:	c0 e0       	ldi	r28, 0x00	; 0
    2416:	10 e0       	ldi	r17, 0x00	; 0
    2418:	ce 01       	movw	r24, r28
    241a:	0e 94 39 11 	call	0x2272	; 0x2272 <nozzle_isEnabled>
    241e:	81 11       	cpse	r24, r1
    2420:	1f 5f       	subi	r17, 0xFF	; 255
    2422:	21 96       	adiw	r28, 0x01	; 1
    2424:	c2 31       	cpi	r28, 0x12	; 18
    2426:	d1 05       	cpc	r29, r1
    2428:	b9 f7       	brne	.-18     	; 0x2418 <pulsonic_getNumNozzleAvailable+0xc>
    242a:	81 2f       	mov	r24, r17
    242c:	df 91       	pop	r29
    242e:	cf 91       	pop	r28
    2430:	1f 91       	pop	r17
    2432:	08 95       	ret

00002434 <pulsonic_init>:
    2434:	8f 92       	push	r8
    2436:	9f 92       	push	r9
    2438:	af 92       	push	r10
    243a:	bf 92       	push	r11
    243c:	cf 92       	push	r12
    243e:	df 92       	push	r13
    2440:	ef 92       	push	r14
    2442:	ff 92       	push	r15
    2444:	0f 93       	push	r16
    2446:	1f 93       	push	r17
    2448:	cf 93       	push	r28
    244a:	df 93       	push	r29
    244c:	00 d0       	rcall	.+0      	; 0x244e <pulsonic_init+0x1a>
    244e:	00 d0       	rcall	.+0      	; 0x2450 <pulsonic_init+0x1c>
    2450:	0f 92       	push	r0
    2452:	cd b7       	in	r28, 0x3d	; 61
    2454:	de b7       	in	r29, 0x3e	; 62
    2456:	80 e0       	ldi	r24, 0x00	; 0
    2458:	90 e0       	ldi	r25, 0x00	; 0
    245a:	a0 e7       	ldi	r26, 0x70	; 112
    245c:	b2 e4       	ldi	r27, 0x42	; 66
    245e:	80 93 52 01 	sts	0x0152, r24	; 0x800152 <pulsonic+0x5>
    2462:	90 93 53 01 	sts	0x0153, r25	; 0x800153 <pulsonic+0x6>
    2466:	a0 93 54 01 	sts	0x0154, r26	; 0x800154 <pulsonic+0x7>
    246a:	b0 93 55 01 	sts	0x0155, r27	; 0x800155 <pulsonic+0x8>
    246e:	10 e0       	ldi	r17, 0x00	; 0
    2470:	00 e0       	ldi	r16, 0x00	; 0
    2472:	91 e0       	ldi	r25, 0x01	; 1
    2474:	e9 2e       	mov	r14, r25
    2476:	90 e0       	ldi	r25, 0x00	; 0
    2478:	f9 2e       	mov	r15, r25
    247a:	1d 82       	std	Y+5, r1	; 0x05
    247c:	2a e9       	ldi	r18, 0x9A	; 154
    247e:	82 2e       	mov	r8, r18
    2480:	29 e9       	ldi	r18, 0x99	; 153
    2482:	92 2e       	mov	r9, r18
    2484:	a9 2c       	mov	r10, r9
    2486:	2e e3       	ldi	r18, 0x3E	; 62
    2488:	b2 2e       	mov	r11, r18
    248a:	c7 01       	movw	r24, r14
    248c:	24 e0       	ldi	r18, 0x04	; 4
    248e:	e2 0e       	add	r14, r18
    2490:	f1 1c       	adc	r15, r1
    2492:	0e 94 08 19 	call	0x3210	; 0x3210 <eeprom_read_dword>
    2496:	46 2f       	mov	r20, r22
    2498:	57 2f       	mov	r21, r23
    249a:	bc 01       	movw	r22, r24
    249c:	34 e1       	ldi	r19, 0x14	; 20
    249e:	30 9f       	mul	r19, r16
    24a0:	c0 01       	movw	r24, r0
    24a2:	31 9f       	mul	r19, r17
    24a4:	90 0d       	add	r25, r0
    24a6:	11 24       	eor	r1, r1
    24a8:	dc 01       	movw	r26, r24
    24aa:	a3 5b       	subi	r26, 0xB3	; 179
    24ac:	be 4f       	sbci	r27, 0xFE	; 254
    24ae:	6d 01       	movw	r12, r26
    24b0:	fd 01       	movw	r30, r26
    24b2:	45 8b       	std	Z+21, r20	; 0x15
    24b4:	56 8b       	std	Z+22, r21	; 0x16
    24b6:	67 8b       	std	Z+23, r22	; 0x17
    24b8:	70 8f       	std	Z+24, r23	; 0x18
    24ba:	55 96       	adiw	r26, 0x15	; 21
    24bc:	8d 91       	ld	r24, X+
    24be:	9d 91       	ld	r25, X+
    24c0:	0d 90       	ld	r0, X+
    24c2:	bc 91       	ld	r27, X
    24c4:	a0 2d       	mov	r26, r0
    24c6:	89 83       	std	Y+1, r24	; 0x01
    24c8:	9a 83       	std	Y+2, r25	; 0x02
    24ca:	ab 83       	std	Y+3, r26	; 0x03
    24cc:	bc 83       	std	Y+4, r27	; 0x04
    24ce:	20 e0       	ldi	r18, 0x00	; 0
    24d0:	30 e0       	ldi	r19, 0x00	; 0
    24d2:	40 e4       	ldi	r20, 0x40	; 64
    24d4:	51 e4       	ldi	r21, 0x41	; 65
    24d6:	bc 01       	movw	r22, r24
    24d8:	cd 01       	movw	r24, r26
    24da:	0e 94 52 18 	call	0x30a4	; 0x30a4 <__gesf2>
    24de:	18 16       	cp	r1, r24
    24e0:	5c f4       	brge	.+22     	; 0x24f8 <pulsonic_init+0xc4>
    24e2:	80 e0       	ldi	r24, 0x00	; 0
    24e4:	90 e0       	ldi	r25, 0x00	; 0
    24e6:	a0 e4       	ldi	r26, 0x40	; 64
    24e8:	b1 e4       	ldi	r27, 0x41	; 65
    24ea:	f6 01       	movw	r30, r12
    24ec:	85 8b       	std	Z+21, r24	; 0x15
    24ee:	96 8b       	std	Z+22, r25	; 0x16
    24f0:	a7 8b       	std	Z+23, r26	; 0x17
    24f2:	b0 8f       	std	Z+24, r27	; 0x18
    24f4:	f1 e0       	ldi	r31, 0x01	; 1
    24f6:	fd 83       	std	Y+5, r31	; 0x05
    24f8:	24 e1       	ldi	r18, 0x14	; 20
    24fa:	20 9f       	mul	r18, r16
    24fc:	c0 01       	movw	r24, r0
    24fe:	21 9f       	mul	r18, r17
    2500:	90 0d       	add	r25, r0
    2502:	11 24       	eor	r1, r1
    2504:	dc 01       	movw	r26, r24
    2506:	a3 5b       	subi	r26, 0xB3	; 179
    2508:	be 4f       	sbci	r27, 0xFE	; 254
    250a:	6d 01       	movw	r12, r26
    250c:	55 96       	adiw	r26, 0x15	; 21
    250e:	8d 91       	ld	r24, X+
    2510:	9d 91       	ld	r25, X+
    2512:	0d 90       	ld	r0, X+
    2514:	bc 91       	ld	r27, X
    2516:	a0 2d       	mov	r26, r0
    2518:	89 83       	std	Y+1, r24	; 0x01
    251a:	9a 83       	std	Y+2, r25	; 0x02
    251c:	ab 83       	std	Y+3, r26	; 0x03
    251e:	bc 83       	std	Y+4, r27	; 0x04
    2520:	20 e0       	ldi	r18, 0x00	; 0
    2522:	30 e0       	ldi	r19, 0x00	; 0
    2524:	a9 01       	movw	r20, r18
    2526:	bc 01       	movw	r22, r24
    2528:	cd 01       	movw	r24, r26
    252a:	0e 94 f3 16 	call	0x2de6	; 0x2de6 <__cmpsf2>
    252e:	87 ff       	sbrs	r24, 7
    2530:	0c c0       	rjmp	.+24     	; 0x254a <pulsonic_init+0x116>
    2532:	01 11       	cpse	r16, r1
    2534:	6e c0       	rjmp	.+220    	; 0x2612 <pulsonic_init+0x1de>
    2536:	80 92 62 01 	sts	0x0162, r8	; 0x800162 <pulsonic+0x15>
    253a:	90 92 63 01 	sts	0x0163, r9	; 0x800163 <pulsonic+0x16>
    253e:	a0 92 64 01 	sts	0x0164, r10	; 0x800164 <pulsonic+0x17>
    2542:	b0 92 65 01 	sts	0x0165, r11	; 0x800165 <pulsonic+0x18>
    2546:	b1 e0       	ldi	r27, 0x01	; 1
    2548:	bd 83       	std	Y+5, r27	; 0x05
    254a:	0f 5f       	subi	r16, 0xFF	; 255
    254c:	1f 4f       	sbci	r17, 0xFF	; 255
    254e:	02 31       	cpi	r16, 0x12	; 18
    2550:	11 05       	cpc	r17, r1
    2552:	09 f0       	breq	.+2      	; 0x2556 <pulsonic_init+0x122>
    2554:	9a cf       	rjmp	.-204    	; 0x248a <pulsonic_init+0x56>
    2556:	80 e0       	ldi	r24, 0x00	; 0
    2558:	90 e0       	ldi	r25, 0x00	; 0
    255a:	0e 94 00 19 	call	0x3200	; 0x3200 <eeprom_read_byte>
    255e:	80 93 ca 02 	sts	0x02CA, r24	; 0x8002ca <pulsonic+0x17d>
    2562:	80 91 ca 02 	lds	r24, 0x02CA	; 0x8002ca <pulsonic+0x17d>
    2566:	84 30       	cpi	r24, 0x04	; 4
    2568:	2c f0       	brlt	.+10     	; 0x2574 <pulsonic_init+0x140>
    256a:	83 e0       	ldi	r24, 0x03	; 3
    256c:	80 93 ca 02 	sts	0x02CA, r24	; 0x8002ca <pulsonic+0x17d>
    2570:	21 e0       	ldi	r18, 0x01	; 1
    2572:	2d 83       	std	Y+5, r18	; 0x05
    2574:	80 91 ca 02 	lds	r24, 0x02CA	; 0x8002ca <pulsonic+0x17d>
    2578:	87 ff       	sbrs	r24, 7
    257a:	04 c0       	rjmp	.+8      	; 0x2584 <pulsonic_init+0x150>
    257c:	10 92 ca 02 	sts	0x02CA, r1	; 0x8002ca <pulsonic+0x17d>
    2580:	31 e0       	ldi	r19, 0x01	; 1
    2582:	3d 83       	std	Y+5, r19	; 0x05
    2584:	e0 91 ca 02 	lds	r30, 0x02CA	; 0x8002ca <pulsonic+0x17d>
    2588:	0e 2e       	mov	r0, r30
    258a:	00 0c       	add	r0, r0
    258c:	ff 0b       	sbc	r31, r31
    258e:	ea 55       	subi	r30, 0x5A	; 90
    2590:	ff 4f       	sbci	r31, 0xFF	; 255
    2592:	80 81       	ld	r24, Z
    2594:	80 93 cb 02 	sts	0x02CB, r24	; 0x8002cb <pulsonic+0x17e>
    2598:	0e 94 06 12 	call	0x240c	; 0x240c <pulsonic_getNumNozzleAvailable>
    259c:	80 93 d0 02 	sts	0x02D0, r24	; 0x8002d0 <pulsonic+0x183>
    25a0:	8d 81       	ldd	r24, Y+5	; 0x05
    25a2:	81 30       	cpi	r24, 0x01	; 1
    25a4:	f1 f5       	brne	.+124    	; 0x2622 <pulsonic_init+0x1ee>
    25a6:	1a 82       	std	Y+2, r1	; 0x02
    25a8:	19 82       	std	Y+1, r1	; 0x01
    25aa:	01 e0       	ldi	r16, 0x01	; 1
    25ac:	10 e0       	ldi	r17, 0x00	; 0
    25ae:	84 e1       	ldi	r24, 0x14	; 20
    25b0:	f8 2e       	mov	r15, r24
    25b2:	a9 81       	ldd	r26, Y+1	; 0x01
    25b4:	ba 81       	ldd	r27, Y+2	; 0x02
    25b6:	fa 9e       	mul	r15, r26
    25b8:	f0 01       	movw	r30, r0
    25ba:	fb 9e       	mul	r15, r27
    25bc:	f0 0d       	add	r31, r0
    25be:	11 24       	eor	r1, r1
    25c0:	e3 5b       	subi	r30, 0xB3	; 179
    25c2:	fe 4f       	sbci	r31, 0xFE	; 254
    25c4:	45 89       	ldd	r20, Z+21	; 0x15
    25c6:	56 89       	ldd	r21, Z+22	; 0x16
    25c8:	67 89       	ldd	r22, Z+23	; 0x17
    25ca:	70 8d       	ldd	r23, Z+24	; 0x18
    25cc:	c8 01       	movw	r24, r16
    25ce:	0c 5f       	subi	r16, 0xFC	; 252
    25d0:	1f 4f       	sbci	r17, 0xFF	; 255
    25d2:	0e 94 1f 19 	call	0x323e	; 0x323e <eeprom_update_dword>
    25d6:	e9 81       	ldd	r30, Y+1	; 0x01
    25d8:	fa 81       	ldd	r31, Y+2	; 0x02
    25da:	31 96       	adiw	r30, 0x01	; 1
    25dc:	fa 83       	std	Y+2, r31	; 0x02
    25de:	e9 83       	std	Y+1, r30	; 0x01
    25e0:	72 97       	sbiw	r30, 0x12	; 18
    25e2:	39 f7       	brne	.-50     	; 0x25b2 <pulsonic_init+0x17e>
    25e4:	60 91 ca 02 	lds	r22, 0x02CA	; 0x8002ca <pulsonic+0x17d>
    25e8:	80 e0       	ldi	r24, 0x00	; 0
    25ea:	90 e0       	ldi	r25, 0x00	; 0
    25ec:	0f 90       	pop	r0
    25ee:	0f 90       	pop	r0
    25f0:	0f 90       	pop	r0
    25f2:	0f 90       	pop	r0
    25f4:	0f 90       	pop	r0
    25f6:	df 91       	pop	r29
    25f8:	cf 91       	pop	r28
    25fa:	1f 91       	pop	r17
    25fc:	0f 91       	pop	r16
    25fe:	ff 90       	pop	r15
    2600:	ef 90       	pop	r14
    2602:	df 90       	pop	r13
    2604:	cf 90       	pop	r12
    2606:	bf 90       	pop	r11
    2608:	af 90       	pop	r10
    260a:	9f 90       	pop	r9
    260c:	8f 90       	pop	r8
    260e:	0c 94 0e 19 	jmp	0x321c	; 0x321c <eeprom_update_byte>
    2612:	f6 01       	movw	r30, r12
    2614:	15 8a       	std	Z+21, r1	; 0x15
    2616:	16 8a       	std	Z+22, r1	; 0x16
    2618:	17 8a       	std	Z+23, r1	; 0x17
    261a:	10 8e       	std	Z+24, r1	; 0x18
    261c:	f1 e0       	ldi	r31, 0x01	; 1
    261e:	fd 83       	std	Y+5, r31	; 0x05
    2620:	94 cf       	rjmp	.-216    	; 0x254a <pulsonic_init+0x116>
    2622:	0f 90       	pop	r0
    2624:	0f 90       	pop	r0
    2626:	0f 90       	pop	r0
    2628:	0f 90       	pop	r0
    262a:	0f 90       	pop	r0
    262c:	df 91       	pop	r29
    262e:	cf 91       	pop	r28
    2630:	1f 91       	pop	r17
    2632:	0f 91       	pop	r16
    2634:	ff 90       	pop	r15
    2636:	ef 90       	pop	r14
    2638:	df 90       	pop	r13
    263a:	cf 90       	pop	r12
    263c:	bf 90       	pop	r11
    263e:	af 90       	pop	r10
    2640:	9f 90       	pop	r9
    2642:	8f 90       	pop	r8
    2644:	08 95       	ret

00002646 <pump_setTick>:
    2646:	90 93 e6 02 	sts	0x02E6, r25	; 0x8002e6 <pump+0x1>
    264a:	80 93 e5 02 	sts	0x02E5, r24	; 0x8002e5 <pump>
    264e:	08 95       	ret

00002650 <pump_getTick>:
    2650:	80 91 e5 02 	lds	r24, 0x02E5	; 0x8002e5 <pump>
    2654:	90 91 e6 02 	lds	r25, 0x02E6	; 0x8002e6 <pump+0x1>
    2658:	08 95       	ret

0000265a <pump_stop>:
    265a:	e5 ee       	ldi	r30, 0xE5	; 229
    265c:	f2 e0       	ldi	r31, 0x02	; 2
    265e:	11 82       	std	Z+1, r1	; 0x01
    2660:	10 82       	st	Z, r1
    2662:	12 82       	std	Z+2, r1	; 0x02
    2664:	96 98       	cbi	0x12, 6	; 18
    2666:	08 95       	ret

00002668 <pump_job>:
    2668:	20 91 e5 02 	lds	r18, 0x02E5	; 0x8002e5 <pump>
    266c:	30 91 e6 02 	lds	r19, 0x02E6	; 0x8002e6 <pump+0x1>
    2670:	21 15       	cp	r18, r1
    2672:	31 05       	cpc	r19, r1
    2674:	11 f4       	brne	.+4      	; 0x267a <pump_job+0x12>
    2676:	80 e0       	ldi	r24, 0x00	; 0
    2678:	63 c0       	rjmp	.+198    	; 0x2740 <pump_job+0xd8>
    267a:	80 91 e7 02 	lds	r24, 0x02E7	; 0x8002e7 <pump+0x2>
    267e:	81 11       	cpse	r24, r1
    2680:	13 c0       	rjmp	.+38     	; 0x26a8 <pump_job+0x40>
    2682:	96 9a       	sbi	0x12, 6	; 18
    2684:	10 92 e4 02 	sts	0x02E4, r1	; 0x8002e4 <c.0+0x1>
    2688:	10 92 e3 02 	sts	0x02E3, r1	; 0x8002e3 <c.0>
    268c:	91 e0       	ldi	r25, 0x01	; 1
    268e:	90 93 e7 02 	sts	0x02E7, r25	; 0x8002e7 <pump+0x2>
    2692:	90 91 df 02 	lds	r25, 0x02DF	; 0x8002df <pulsonic+0x192>
    2696:	90 68       	ori	r25, 0x80	; 128
    2698:	90 93 df 02 	sts	0x02DF, r25	; 0x8002df <pulsonic+0x192>
    269c:	90 91 e0 02 	lds	r25, 0x02E0	; 0x8002e0 <pulsonic+0x193>
    26a0:	90 68       	ori	r25, 0x80	; 128
    26a2:	90 93 e0 02 	sts	0x02E0, r25	; 0x8002e0 <pulsonic+0x193>
    26a6:	08 95       	ret
    26a8:	81 30       	cpi	r24, 0x01	; 1
    26aa:	29 f5       	brne	.+74     	; 0x26f6 <pump_job+0x8e>
    26ac:	80 91 31 01 	lds	r24, 0x0131	; 0x800131 <smain>
    26b0:	80 ff       	sbrs	r24, 0
    26b2:	e1 cf       	rjmp	.-62     	; 0x2676 <pump_job+0xe>
    26b4:	80 91 e3 02 	lds	r24, 0x02E3	; 0x8002e3 <c.0>
    26b8:	90 91 e4 02 	lds	r25, 0x02E4	; 0x8002e4 <c.0+0x1>
    26bc:	9c 01       	movw	r18, r24
    26be:	2f 5f       	subi	r18, 0xFF	; 255
    26c0:	3f 4f       	sbci	r19, 0xFF	; 255
    26c2:	43 97       	sbiw	r24, 0x13	; 19
    26c4:	29 f0       	breq	.+10     	; 0x26d0 <pump_job+0x68>
    26c6:	30 93 e4 02 	sts	0x02E4, r19	; 0x8002e4 <c.0+0x1>
    26ca:	20 93 e3 02 	sts	0x02E3, r18	; 0x8002e3 <c.0>
    26ce:	d3 cf       	rjmp	.-90     	; 0x2676 <pump_job+0xe>
    26d0:	10 92 e4 02 	sts	0x02E4, r1	; 0x8002e4 <c.0+0x1>
    26d4:	10 92 e3 02 	sts	0x02E3, r1	; 0x8002e3 <c.0>
    26d8:	82 e0       	ldi	r24, 0x02	; 2
    26da:	80 93 e7 02 	sts	0x02E7, r24	; 0x8002e7 <pump+0x2>
    26de:	96 98       	cbi	0x12, 6	; 18
    26e0:	80 91 df 02 	lds	r24, 0x02DF	; 0x8002df <pulsonic+0x192>
    26e4:	8f 77       	andi	r24, 0x7F	; 127
    26e6:	80 93 df 02 	sts	0x02DF, r24	; 0x8002df <pulsonic+0x192>
    26ea:	80 91 e0 02 	lds	r24, 0x02E0	; 0x8002e0 <pulsonic+0x193>
    26ee:	8f 77       	andi	r24, 0x7F	; 127
    26f0:	80 93 e0 02 	sts	0x02E0, r24	; 0x8002e0 <pulsonic+0x193>
    26f4:	c0 cf       	rjmp	.-128    	; 0x2676 <pump_job+0xe>
    26f6:	82 30       	cpi	r24, 0x02	; 2
    26f8:	09 f0       	breq	.+2      	; 0x26fc <pump_job+0x94>
    26fa:	bd cf       	rjmp	.-134    	; 0x2676 <pump_job+0xe>
    26fc:	80 91 31 01 	lds	r24, 0x0131	; 0x800131 <smain>
    2700:	80 ff       	sbrs	r24, 0
    2702:	b9 cf       	rjmp	.-142    	; 0x2676 <pump_job+0xe>
    2704:	80 91 e3 02 	lds	r24, 0x02E3	; 0x8002e3 <c.0>
    2708:	90 91 e4 02 	lds	r25, 0x02E4	; 0x8002e4 <c.0+0x1>
    270c:	ac 01       	movw	r20, r24
    270e:	4f 5f       	subi	r20, 0xFF	; 255
    2710:	5f 4f       	sbci	r21, 0xFF	; 255
    2712:	cb 97       	sbiw	r24, 0x3b	; 59
    2714:	29 f0       	breq	.+10     	; 0x2720 <pump_job+0xb8>
    2716:	50 93 e4 02 	sts	0x02E4, r21	; 0x8002e4 <c.0+0x1>
    271a:	40 93 e3 02 	sts	0x02E3, r20	; 0x8002e3 <c.0>
    271e:	ab cf       	rjmp	.-170    	; 0x2676 <pump_job+0xe>
    2720:	10 92 e4 02 	sts	0x02E4, r1	; 0x8002e4 <c.0+0x1>
    2724:	10 92 e3 02 	sts	0x02E3, r1	; 0x8002e3 <c.0>
    2728:	10 92 e7 02 	sts	0x02E7, r1	; 0x8002e7 <pump+0x2>
    272c:	21 50       	subi	r18, 0x01	; 1
    272e:	31 09       	sbc	r19, r1
    2730:	30 93 e6 02 	sts	0x02E6, r19	; 0x8002e6 <pump+0x1>
    2734:	20 93 e5 02 	sts	0x02E5, r18	; 0x8002e5 <pump>
    2738:	81 e0       	ldi	r24, 0x01	; 1
    273a:	23 2b       	or	r18, r19
    273c:	09 f0       	breq	.+2      	; 0x2740 <pump_job+0xd8>
    273e:	9b cf       	rjmp	.-202    	; 0x2676 <pump_job+0xe>
    2740:	08 95       	ret

00002742 <pump_isIdle>:
    2742:	81 e0       	ldi	r24, 0x01	; 1
    2744:	20 91 e5 02 	lds	r18, 0x02E5	; 0x8002e5 <pump>
    2748:	30 91 e6 02 	lds	r19, 0x02E6	; 0x8002e6 <pump+0x1>
    274c:	23 2b       	or	r18, r19
    274e:	09 f0       	breq	.+2      	; 0x2752 <pump_isIdle+0x10>
    2750:	80 e0       	ldi	r24, 0x00	; 0
    2752:	08 95       	ret

00002754 <setdc>:
    2754:	9b bd       	out	0x2b, r25	; 43
    2756:	8a bd       	out	0x2a, r24	; 42
    2758:	08 95       	ret

0000275a <visMode_job>:
    275a:	cf 93       	push	r28
    275c:	df 93       	push	r29
    275e:	00 d0       	rcall	.+0      	; 0x2760 <visMode_job+0x6>
    2760:	00 d0       	rcall	.+0      	; 0x2762 <visMode_job+0x8>
    2762:	cd b7       	in	r28, 0x3d	; 61
    2764:	de b7       	in	r29, 0x3e	; 62
    2766:	80 91 8d 00 	lds	r24, 0x008D	; 0x80008d <visMode+0x1>
    276a:	81 30       	cpi	r24, 0x01	; 1
    276c:	89 f5       	brne	.+98     	; 0x27d0 <visMode_job+0x76>
    276e:	80 91 2f 01 	lds	r24, 0x012F	; 0x80012f <disp_owner>
    2772:	81 30       	cpi	r24, 0x01	; 1
    2774:	59 f5       	brne	.+86     	; 0x27cc <visMode_job+0x72>
    2776:	20 91 8c 00 	lds	r18, 0x008C	; 0x80008c <visMode>
    277a:	29 83       	std	Y+1, r18	; 0x01
    277c:	22 31       	cpi	r18, 0x12	; 18
    277e:	b4 f5       	brge	.+108    	; 0x27ec <visMode_job+0x92>
    2780:	82 2f       	mov	r24, r18
    2782:	08 2e       	mov	r0, r24
    2784:	00 0c       	add	r0, r0
    2786:	99 0b       	sbc	r25, r25
    2788:	9a 83       	std	Y+2, r25	; 0x02
    278a:	89 83       	std	Y+1, r24	; 0x01
    278c:	01 96       	adiw	r24, 0x01	; 1
    278e:	0e 94 7b 08 	call	0x10f6	; 0x10f6 <disp7s_modeDisp_writeInt>
    2792:	84 e1       	ldi	r24, 0x14	; 20
    2794:	a9 81       	ldd	r26, Y+1	; 0x01
    2796:	ba 81       	ldd	r27, Y+2	; 0x02
    2798:	8a 9f       	mul	r24, r26
    279a:	f0 01       	movw	r30, r0
    279c:	8b 9f       	mul	r24, r27
    279e:	f0 0d       	add	r31, r0
    27a0:	11 24       	eor	r1, r1
    27a2:	e3 5b       	subi	r30, 0xB3	; 179
    27a4:	fe 4f       	sbci	r31, 0xFE	; 254
    27a6:	85 89       	ldd	r24, Z+21	; 0x15
    27a8:	96 89       	ldd	r25, Z+22	; 0x16
    27aa:	a7 89       	ldd	r26, Z+23	; 0x17
    27ac:	b0 8d       	ldd	r27, Z+24	; 0x18
    27ae:	89 83       	std	Y+1, r24	; 0x01
    27b0:	9a 83       	std	Y+2, r25	; 0x02
    27b2:	ab 83       	std	Y+3, r26	; 0x03
    27b4:	bc 83       	std	Y+4, r27	; 0x04
    27b6:	20 e0       	ldi	r18, 0x00	; 0
    27b8:	30 e0       	ldi	r19, 0x00	; 0
    27ba:	a9 01       	movw	r20, r18
    27bc:	bc 01       	movw	r22, r24
    27be:	cd 01       	movw	r24, r26
    27c0:	0e 94 f3 16 	call	0x2de6	; 0x2de6 <__cmpsf2>
    27c4:	81 11       	cpse	r24, r1
    27c6:	0b c0       	rjmp	.+22     	; 0x27de <visMode_job+0x84>
    27c8:	0e 94 dd 06 	call	0xdba	; 0xdba <disp7s_qtyDisp_writeText_OFF>
    27cc:	10 92 8d 00 	sts	0x008D, r1	; 0x80008d <visMode+0x1>
    27d0:	0f 90       	pop	r0
    27d2:	0f 90       	pop	r0
    27d4:	0f 90       	pop	r0
    27d6:	0f 90       	pop	r0
    27d8:	df 91       	pop	r29
    27da:	cf 91       	pop	r28
    27dc:	08 95       	ret
    27de:	69 81       	ldd	r22, Y+1	; 0x01
    27e0:	7a 81       	ldd	r23, Y+2	; 0x02
    27e2:	8b 81       	ldd	r24, Y+3	; 0x03
    27e4:	9c 81       	ldd	r25, Y+4	; 0x04
    27e6:	0e 94 00 08 	call	0x1000	; 0x1000 <disp7s_qtyDisp_writeFloat>
    27ea:	f0 cf       	rjmp	.-32     	; 0x27cc <visMode_job+0x72>
    27ec:	0e 94 d6 06 	call	0xdac	; 0xdac <disp7s_modeDisp_writeText_oil>
    27f0:	80 91 cb 02 	lds	r24, 0x02CB	; 0x8002cb <pulsonic+0x17e>
    27f4:	08 2e       	mov	r0, r24
    27f6:	00 0c       	add	r0, r0
    27f8:	99 0b       	sbc	r25, r25
    27fa:	0e 94 75 08 	call	0x10ea	; 0x10ea <disp7s_qtyDisp_writeInt>
    27fe:	e6 cf       	rjmp	.-52     	; 0x27cc <visMode_job+0x72>

00002800 <main>:
    2800:	cf 93       	push	r28
    2802:	df 93       	push	r29
    2804:	cd b7       	in	r28, 0x3d	; 61
    2806:	de b7       	in	r29, 0x3e	; 62
    2808:	2a 97       	sbiw	r28, 0x0a	; 10
    280a:	0f b6       	in	r0, 0x3f	; 63
    280c:	f8 94       	cli
    280e:	de bf       	out	0x3e, r29	; 62
    2810:	0f be       	out	0x3f, r0	; 63
    2812:	cd bf       	out	0x3d, r28	; 61
    2814:	1b ba       	out	0x1b, r1	; 27
    2816:	18 ba       	out	0x18, r1	; 24
    2818:	12 ba       	out	0x12, r1	; 18
    281a:	15 ba       	out	0x15, r1	; 21
    281c:	8f e0       	ldi	r24, 0x0F	; 15
    281e:	84 bb       	out	0x14, r24	; 20
    2820:	8d 9a       	sbi	0x11, 5	; 17
    2822:	93 9a       	sbi	0x12, 3	; 18
    2824:	8b 9a       	sbi	0x11, 3	; 17
    2826:	96 98       	cbi	0x12, 6	; 18
    2828:	8e 9a       	sbi	0x11, 6	; 17
    282a:	8f 98       	cbi	0x11, 7	; 17
    282c:	bf 98       	cbi	0x17, 7	; 23
    282e:	8c 98       	cbi	0x11, 4	; 17
    2830:	97 9a       	sbi	0x12, 7	; 18
    2832:	c7 9a       	sbi	0x18, 7	; 24
    2834:	94 9a       	sbi	0x12, 4	; 18
    2836:	0e 94 a3 09 	call	0x1346	; 0x1346 <ikb_init>
    283a:	0e 94 19 0d 	call	0x1a32	; 0x1a32 <mykb_layout0>
    283e:	0e 94 1a 06 	call	0xc34	; 0xc34 <disp7s_init>
    2842:	0e 94 1a 12 	call	0x2434	; 0x2434 <pulsonic_init>
    2846:	0e 94 94 0c 	call	0x1928	; 0x1928 <startSignal_init>
    284a:	0e 94 d1 0c 	call	0x19a2	; 0x19a2 <oilLevel_init>
    284e:	80 91 3b 01 	lds	r24, 0x013B	; 0x80013b <psFlag>
    2852:	88 7f       	andi	r24, 0xF8	; 248
    2854:	83 60       	ori	r24, 0x03	; 3
    2856:	80 93 3b 01 	sts	0x013B, r24	; 0x80013b <psFlag>
    285a:	10 92 2f 01 	sts	0x012F, r1	; 0x80012f <disp_owner>
    285e:	10 92 30 01 	sts	0x0130, r1	; 0x800130 <funcMach>
    2862:	81 e0       	ldi	r24, 0x01	; 1
    2864:	0e 94 b4 01 	call	0x368	; 0x368 <autoMode_cmd>
    2868:	0e 94 9e 0c 	call	0x193c	; 0x193c <is_startSignal>
    286c:	80 93 29 01 	sts	0x0129, r24	; 0x800129 <startSig_last>
    2870:	1d bc       	out	0x2d, r1	; 45
    2872:	1c bc       	out	0x2c, r1	; 44
    2874:	83 e6       	ldi	r24, 0x63	; 99
    2876:	90 e0       	ldi	r25, 0x00	; 0
    2878:	97 bd       	out	0x27, r25	; 39
    287a:	86 bd       	out	0x26, r24	; 38
    287c:	82 e2       	ldi	r24, 0x22	; 34
    287e:	90 e0       	ldi	r25, 0x00	; 0
    2880:	0e 94 aa 13 	call	0x2754	; 0x2754 <setdc>
    2884:	8a e1       	ldi	r24, 0x1A	; 26
    2886:	8e bd       	out	0x2e, r24	; 46
    2888:	82 ec       	ldi	r24, 0xC2	; 194
    288a:	8f bd       	out	0x2f, r24	; 47
    288c:	89 b7       	in	r24, 0x39	; 57
    288e:	84 60       	ori	r24, 0x04	; 4
    2890:	89 bf       	out	0x39, r24	; 57
    2892:	78 94       	sei
    2894:	f1 2c       	mov	r15, r1
    2896:	e1 2c       	mov	r14, r1
    2898:	b1 2c       	mov	r11, r1
    289a:	c1 2c       	mov	r12, r1
    289c:	d1 2c       	mov	r13, r1
    289e:	1f ef       	ldi	r17, 0xFF	; 255
    28a0:	23 e1       	ldi	r18, 0x13	; 19
    28a2:	a2 2e       	mov	r10, r18
    28a4:	80 91 3c 01 	lds	r24, 0x013C	; 0x80013c <isr_flag>
    28a8:	80 ff       	sbrs	r24, 0
    28aa:	0a c0       	rjmp	.+20     	; 0x28c0 <main+0xc0>
    28ac:	80 91 3c 01 	lds	r24, 0x013C	; 0x80013c <isr_flag>
    28b0:	8e 7f       	andi	r24, 0xFE	; 254
    28b2:	80 93 3c 01 	sts	0x013C, r24	; 0x80013c <isr_flag>
    28b6:	80 91 31 01 	lds	r24, 0x0131	; 0x800131 <smain>
    28ba:	81 60       	ori	r24, 0x01	; 1
    28bc:	80 93 31 01 	sts	0x0131, r24	; 0x800131 <smain>
    28c0:	80 91 31 01 	lds	r24, 0x0131	; 0x800131 <smain>
    28c4:	80 ff       	sbrs	r24, 0
    28c6:	07 c0       	rjmp	.+14     	; 0x28d6 <main+0xd6>
    28c8:	b3 94       	inc	r11
    28ca:	23 e0       	ldi	r18, 0x03	; 3
    28cc:	b2 12       	cpse	r11, r18
    28ce:	03 c0       	rjmp	.+6      	; 0x28d6 <main+0xd6>
    28d0:	0e 94 43 06 	call	0xc86	; 0xc86 <disp7s_job>
    28d4:	b1 2c       	mov	r11, r1
    28d6:	d1 10       	cpse	r13, r1
    28d8:	20 c0       	rjmp	.+64     	; 0x291a <main+0x11a>
    28da:	10 93 e0 02 	sts	0x02E0, r17	; 0x8002e0 <pulsonic+0x193>
    28de:	10 93 df 02 	sts	0x02DF, r17	; 0x8002df <pulsonic+0x192>
    28e2:	10 93 de 02 	sts	0x02DE, r17	; 0x8002de <pulsonic+0x191>
    28e6:	10 93 dd 02 	sts	0x02DD, r17	; 0x8002dd <pulsonic+0x190>
    28ea:	10 93 dc 02 	sts	0x02DC, r17	; 0x8002dc <pulsonic+0x18f>
    28ee:	80 91 31 01 	lds	r24, 0x0131	; 0x800131 <smain>
    28f2:	80 ff       	sbrs	r24, 0
    28f4:	0c c0       	rjmp	.+24     	; 0x290e <main+0x10e>
    28f6:	8f ef       	ldi	r24, 0xFF	; 255
    28f8:	e8 1a       	sub	r14, r24
    28fa:	f8 0a       	sbc	r15, r24
    28fc:	20 ed       	ldi	r18, 0xD0	; 208
    28fe:	e2 16       	cp	r14, r18
    2900:	27 e0       	ldi	r18, 0x07	; 7
    2902:	f2 06       	cpc	r15, r18
    2904:	21 f4       	brne	.+8      	; 0x290e <main+0x10e>
    2906:	f1 2c       	mov	r15, r1
    2908:	e1 2c       	mov	r14, r1
    290a:	dd 24       	eor	r13, r13
    290c:	d3 94       	inc	r13
    290e:	80 91 31 01 	lds	r24, 0x0131	; 0x800131 <smain>
    2912:	8e 7f       	andi	r24, 0xFE	; 254
    2914:	80 93 31 01 	sts	0x0131, r24	; 0x800131 <smain>
    2918:	c5 cf       	rjmp	.-118    	; 0x28a4 <main+0xa4>
    291a:	81 e0       	ldi	r24, 0x01	; 1
    291c:	d8 12       	cpse	r13, r24
    291e:	2d c0       	rjmp	.+90     	; 0x297a <main+0x17a>
    2920:	66 e6       	ldi	r22, 0x66	; 102
    2922:	76 e6       	ldi	r23, 0x66	; 102
    2924:	86 ea       	ldi	r24, 0xA6	; 166
    2926:	90 e4       	ldi	r25, 0x40	; 64
    2928:	0e 94 07 08 	call	0x100e	; 0x100e <disp7s_modeDisp_writeFloat>
    292c:	10 92 de 02 	sts	0x02DE, r1	; 0x8002de <pulsonic+0x191>
    2930:	10 92 dd 02 	sts	0x02DD, r1	; 0x8002dd <pulsonic+0x190>
    2934:	10 92 dc 02 	sts	0x02DC, r1	; 0x8002dc <pulsonic+0x18f>
    2938:	80 91 31 01 	lds	r24, 0x0131	; 0x800131 <smain>
    293c:	80 ff       	sbrs	r24, 0
    293e:	e7 cf       	rjmp	.-50     	; 0x290e <main+0x10e>
    2940:	2f ef       	ldi	r18, 0xFF	; 255
    2942:	e2 1a       	sub	r14, r18
    2944:	f2 0a       	sbc	r15, r18
    2946:	80 ed       	ldi	r24, 0xD0	; 208
    2948:	e8 16       	cp	r14, r24
    294a:	87 e0       	ldi	r24, 0x07	; 7
    294c:	f8 06       	cpc	r15, r24
    294e:	f9 f6       	brne	.-66     	; 0x290e <main+0x10e>
    2950:	84 e1       	ldi	r24, 0x14	; 20
    2952:	90 e0       	ldi	r25, 0x00	; 0
    2954:	0e 94 7b 08 	call	0x10f6	; 0x10f6 <disp7s_modeDisp_writeInt>
    2958:	0e 94 c5 11 	call	0x238a	; 0x238a <pulsonic_getTotalSum_mlh>
    295c:	6f 83       	std	Y+7, r22	; 0x07
    295e:	78 87       	std	Y+8, r23	; 0x08
    2960:	89 87       	std	Y+9, r24	; 0x09
    2962:	9a 87       	std	Y+10, r25	; 0x0a
    2964:	6f 81       	ldd	r22, Y+7	; 0x07
    2966:	78 85       	ldd	r23, Y+8	; 0x08
    2968:	89 85       	ldd	r24, Y+9	; 0x09
    296a:	9a 85       	ldd	r25, Y+10	; 0x0a
    296c:	0e 94 00 08 	call	0x1000	; 0x1000 <disp7s_qtyDisp_writeFloat>
    2970:	f1 2c       	mov	r15, r1
    2972:	e1 2c       	mov	r14, r1
    2974:	92 e0       	ldi	r25, 0x02	; 2
    2976:	d9 2e       	mov	r13, r25
    2978:	ca cf       	rjmp	.-108    	; 0x290e <main+0x10e>
    297a:	22 e0       	ldi	r18, 0x02	; 2
    297c:	d2 12       	cpse	r13, r18
    297e:	07 c0       	rjmp	.+14     	; 0x298e <main+0x18e>
    2980:	0e 94 a6 10 	call	0x214c	; 0x214c <mpap_homming_job>
    2984:	88 23       	and	r24, r24
    2986:	19 f2       	breq	.-122    	; 0x290e <main+0x10e>
    2988:	83 e0       	ldi	r24, 0x03	; 3
    298a:	d8 2e       	mov	r13, r24
    298c:	c0 cf       	rjmp	.-128    	; 0x290e <main+0x10e>
    298e:	80 91 31 01 	lds	r24, 0x0131	; 0x800131 <smain>
    2992:	80 ff       	sbrs	r24, 0
    2994:	07 c0       	rjmp	.+14     	; 0x29a4 <main+0x1a4>
    2996:	c3 94       	inc	r12
    2998:	84 e1       	ldi	r24, 0x14	; 20
    299a:	c8 12       	cpse	r12, r24
    299c:	03 c0       	rjmp	.+6      	; 0x29a4 <main+0x1a4>
    299e:	0e 94 4a 0c 	call	0x1894	; 0x1894 <ikb_job>
    29a2:	c1 2c       	mov	r12, r1
    29a4:	0e 94 04 0e 	call	0x1c08	; 0x1c08 <error_job>
    29a8:	0e 94 9e 0c 	call	0x193c	; 0x193c <is_startSignal>
    29ac:	08 2f       	mov	r16, r24
    29ae:	80 91 30 01 	lds	r24, 0x0130	; 0x800130 <funcMach>
    29b2:	81 11       	cpse	r24, r1
    29b4:	43 c1       	rjmp	.+646    	; 0x2c3c <main+0x43c>
    29b6:	90 91 3b 01 	lds	r25, 0x013B	; 0x80013b <psFlag>
    29ba:	92 fd       	sbrc	r25, 2
    29bc:	1c c0       	rjmp	.+56     	; 0x29f6 <main+0x1f6>
    29be:	00 23       	and	r16, r16
    29c0:	09 f4       	brne	.+2      	; 0x29c4 <main+0x1c4>
    29c2:	81 c0       	rjmp	.+258    	; 0x2ac6 <main+0x2c6>
    29c4:	90 ff       	sbrs	r25, 0
    29c6:	06 c0       	rjmp	.+12     	; 0x29d4 <main+0x1d4>
    29c8:	9c 7f       	andi	r25, 0xFC	; 252
    29ca:	92 60       	ori	r25, 0x02	; 2
    29cc:	90 93 3b 01 	sts	0x013B, r25	; 0x80013b <psFlag>
    29d0:	0e 94 b4 01 	call	0x368	; 0x368 <autoMode_cmd>
    29d4:	80 91 2f 01 	lds	r24, 0x012F	; 0x80012f <disp_owner>
    29d8:	81 11       	cpse	r24, r1
    29da:	0b c0       	rjmp	.+22     	; 0x29f2 <main+0x1f2>
    29dc:	80 91 29 01 	lds	r24, 0x0129	; 0x800129 <startSig_last>
    29e0:	80 17       	cp	r24, r16
    29e2:	39 f0       	breq	.+14     	; 0x29f2 <main+0x1f2>
    29e4:	00 93 29 01 	sts	0x0129, r16	; 0x800129 <startSig_last>
    29e8:	00 23       	and	r16, r16
    29ea:	09 f4       	brne	.+2      	; 0x29ee <main+0x1ee>
    29ec:	74 c0       	rjmp	.+232    	; 0x2ad6 <main+0x2d6>
    29ee:	0e 94 8d 01 	call	0x31a	; 0x31a <autoMode_disp7s_writeSumTotal>
    29f2:	0e 94 c6 01 	call	0x38c	; 0x38c <autoMode1_job>
    29f6:	84 e0       	ldi	r24, 0x04	; 4
    29f8:	0e 94 ff 09 	call	0x13fe	; 0x13fe <ikb_key_is_ready2read>
    29fc:	08 2f       	mov	r16, r24
    29fe:	80 91 39 01 	lds	r24, 0x0139	; 0x800139 <flushKb_last.7>
    2a02:	80 17       	cp	r24, r16
    2a04:	69 f0       	breq	.+26     	; 0x2a20 <main+0x220>
    2a06:	00 23       	and	r16, r16
    2a08:	09 f4       	brne	.+2      	; 0x2a0c <main+0x20c>
    2a0a:	68 c0       	rjmp	.+208    	; 0x2adc <main+0x2dc>
    2a0c:	80 91 3b 01 	lds	r24, 0x013B	; 0x80013b <psFlag>
    2a10:	84 60       	ori	r24, 0x04	; 4
    2a12:	80 93 3b 01 	sts	0x013B, r24	; 0x80013b <psFlag>
    2a16:	80 e0       	ldi	r24, 0x00	; 0
    2a18:	0e 94 9a 08 	call	0x1134	; 0x1134 <flushAllMode_cmd>
    2a1c:	00 93 39 01 	sts	0x0139, r16	; 0x800139 <flushKb_last.7>
    2a20:	80 91 8e 00 	lds	r24, 0x008E	; 0x80008e <visMode+0x2>
    2a24:	81 30       	cpi	r24, 0x01	; 1
    2a26:	71 f5       	brne	.+92     	; 0x2a84 <main+0x284>
    2a28:	80 91 31 01 	lds	r24, 0x0131	; 0x800131 <smain>
    2a2c:	80 ff       	sbrs	r24, 0
    2a2e:	2a c0       	rjmp	.+84     	; 0x2a84 <main+0x284>
    2a30:	80 91 8f 00 	lds	r24, 0x008F	; 0x80008f <visMode+0x3>
    2a34:	90 91 90 00 	lds	r25, 0x0090	; 0x800090 <visMode+0x4>
    2a38:	a0 91 91 00 	lds	r26, 0x0091	; 0x800091 <visMode+0x5>
    2a3c:	b0 91 92 00 	lds	r27, 0x0092	; 0x800092 <visMode+0x6>
    2a40:	01 96       	adiw	r24, 0x01	; 1
    2a42:	a1 1d       	adc	r26, r1
    2a44:	b1 1d       	adc	r27, r1
    2a46:	80 93 8f 00 	sts	0x008F, r24	; 0x80008f <visMode+0x3>
    2a4a:	90 93 90 00 	sts	0x0090, r25	; 0x800090 <visMode+0x4>
    2a4e:	a0 93 91 00 	sts	0x0091, r26	; 0x800091 <visMode+0x5>
    2a52:	b0 93 92 00 	sts	0x0092, r27	; 0x800092 <visMode+0x6>
    2a56:	80 31       	cpi	r24, 0x10	; 16
    2a58:	97 42       	sbci	r25, 0x27	; 39
    2a5a:	a1 05       	cpc	r26, r1
    2a5c:	b1 05       	cpc	r27, r1
    2a5e:	90 f0       	brcs	.+36     	; 0x2a84 <main+0x284>
    2a60:	10 92 8e 00 	sts	0x008E, r1	; 0x80008e <visMode+0x2>
    2a64:	10 92 8f 00 	sts	0x008F, r1	; 0x80008f <visMode+0x3>
    2a68:	10 92 90 00 	sts	0x0090, r1	; 0x800090 <visMode+0x4>
    2a6c:	10 92 91 00 	sts	0x0091, r1	; 0x800091 <visMode+0x5>
    2a70:	10 92 92 00 	sts	0x0092, r1	; 0x800092 <visMode+0x6>
    2a74:	10 92 93 00 	sts	0x0093, r1	; 0x800093 <visMode+0x7>
    2a78:	10 93 8c 00 	sts	0x008C, r17	; 0x80008c <visMode>
    2a7c:	10 92 2f 01 	sts	0x012F, r1	; 0x80012f <disp_owner>
    2a80:	10 93 29 01 	sts	0x0129, r17	; 0x800129 <startSig_last>
    2a84:	80 e0       	ldi	r24, 0x00	; 0
    2a86:	0e 94 ff 09 	call	0x13fe	; 0x13fe <ikb_key_is_ready2read>
    2a8a:	88 23       	and	r24, r24
    2a8c:	09 f4       	brne	.+2      	; 0x2a90 <main+0x290>
    2a8e:	48 c0       	rjmp	.+144    	; 0x2b20 <main+0x320>
    2a90:	80 91 8c 00 	lds	r24, 0x008C	; 0x80008c <visMode>
    2a94:	8f 5f       	subi	r24, 0xFF	; 255
    2a96:	80 93 8c 00 	sts	0x008C, r24	; 0x80008c <visMode>
    2a9a:	83 31       	cpi	r24, 0x13	; 19
    2a9c:	0c f4       	brge	.+2      	; 0x2aa0 <main+0x2a0>
    2a9e:	52 c0       	rjmp	.+164    	; 0x2b44 <main+0x344>
    2aa0:	10 93 8c 00 	sts	0x008C, r17	; 0x80008c <visMode>
    2aa4:	10 92 2f 01 	sts	0x012F, r1	; 0x80012f <disp_owner>
    2aa8:	10 93 29 01 	sts	0x0129, r17	; 0x800129 <startSig_last>
    2aac:	10 92 8e 00 	sts	0x008E, r1	; 0x80008e <visMode+0x2>
    2ab0:	10 92 8f 00 	sts	0x008F, r1	; 0x80008f <visMode+0x3>
    2ab4:	10 92 90 00 	sts	0x0090, r1	; 0x800090 <visMode+0x4>
    2ab8:	10 92 91 00 	sts	0x0091, r1	; 0x800091 <visMode+0x5>
    2abc:	10 92 92 00 	sts	0x0092, r1	; 0x800092 <visMode+0x6>
    2ac0:	10 92 93 00 	sts	0x0093, r1	; 0x800093 <visMode+0x7>
    2ac4:	55 c0       	rjmp	.+170    	; 0x2b70 <main+0x370>
    2ac6:	91 ff       	sbrs	r25, 1
    2ac8:	85 cf       	rjmp	.-246    	; 0x29d4 <main+0x1d4>
    2aca:	9c 7f       	andi	r25, 0xFC	; 252
    2acc:	91 60       	ori	r25, 0x01	; 1
    2ace:	90 93 3b 01 	sts	0x013B, r25	; 0x80013b <psFlag>
    2ad2:	81 e0       	ldi	r24, 0x01	; 1
    2ad4:	7d cf       	rjmp	.-262    	; 0x29d0 <main+0x1d0>
    2ad6:	0e 94 81 08 	call	0x1102	; 0x1102 <disp7s_qtyDisp_writeText_20_3RAYAS>
    2ada:	8b cf       	rjmp	.-234    	; 0x29f2 <main+0x1f2>
    2adc:	81 e0       	ldi	r24, 0x01	; 1
    2ade:	0e 94 9a 08 	call	0x1134	; 0x1134 <flushAllMode_cmd>
    2ae2:	80 91 3b 01 	lds	r24, 0x013B	; 0x80013b <psFlag>
    2ae6:	8a 7f       	andi	r24, 0xFA	; 250
    2ae8:	81 60       	ori	r24, 0x01	; 1
    2aea:	80 93 3b 01 	sts	0x013B, r24	; 0x80013b <psFlag>
    2aee:	80 91 2f 01 	lds	r24, 0x012F	; 0x80012f <disp_owner>
    2af2:	81 11       	cpse	r24, r1
    2af4:	0f c0       	rjmp	.+30     	; 0x2b14 <main+0x314>
    2af6:	10 93 29 01 	sts	0x0129, r17	; 0x800129 <startSig_last>
    2afa:	10 92 8e 00 	sts	0x008E, r1	; 0x80008e <visMode+0x2>
    2afe:	10 92 8f 00 	sts	0x008F, r1	; 0x80008f <visMode+0x3>
    2b02:	10 92 90 00 	sts	0x0090, r1	; 0x800090 <visMode+0x4>
    2b06:	10 92 91 00 	sts	0x0091, r1	; 0x800091 <visMode+0x5>
    2b0a:	10 92 92 00 	sts	0x0092, r1	; 0x800092 <visMode+0x6>
    2b0e:	10 92 93 00 	sts	0x0093, r1	; 0x800093 <visMode+0x7>
    2b12:	84 cf       	rjmp	.-248    	; 0x2a1c <main+0x21c>
    2b14:	81 30       	cpi	r24, 0x01	; 1
    2b16:	09 f0       	breq	.+2      	; 0x2b1a <main+0x31a>
    2b18:	81 cf       	rjmp	.-254    	; 0x2a1c <main+0x21c>
    2b1a:	80 93 8d 00 	sts	0x008D, r24	; 0x80008d <visMode+0x1>
    2b1e:	7e cf       	rjmp	.-260    	; 0x2a1c <main+0x21c>
    2b20:	81 e0       	ldi	r24, 0x01	; 1
    2b22:	0e 94 ff 09 	call	0x13fe	; 0x13fe <ikb_key_is_ready2read>
    2b26:	88 23       	and	r24, r24
    2b28:	19 f1       	breq	.+70     	; 0x2b70 <main+0x370>
    2b2a:	80 91 8c 00 	lds	r24, 0x008C	; 0x80008c <visMode>
    2b2e:	8f 3f       	cpi	r24, 0xFF	; 255
    2b30:	11 f4       	brne	.+4      	; 0x2b36 <main+0x336>
    2b32:	a0 92 8c 00 	sts	0x008C, r10	; 0x80008c <visMode>
    2b36:	80 91 8c 00 	lds	r24, 0x008C	; 0x80008c <visMode>
    2b3a:	81 50       	subi	r24, 0x01	; 1
    2b3c:	80 93 8c 00 	sts	0x008C, r24	; 0x80008c <visMode>
    2b40:	87 fd       	sbrc	r24, 7
    2b42:	b0 cf       	rjmp	.-160    	; 0x2aa4 <main+0x2a4>
    2b44:	81 e0       	ldi	r24, 0x01	; 1
    2b46:	80 93 2f 01 	sts	0x012F, r24	; 0x80012f <disp_owner>
    2b4a:	80 93 8d 00 	sts	0x008D, r24	; 0x80008d <visMode+0x1>
    2b4e:	80 91 93 00 	lds	r24, 0x0093	; 0x800093 <visMode+0x7>
    2b52:	81 11       	cpse	r24, r1
    2b54:	05 c0       	rjmp	.+10     	; 0x2b60 <main+0x360>
    2b56:	81 e0       	ldi	r24, 0x01	; 1
    2b58:	80 93 8e 00 	sts	0x008E, r24	; 0x80008e <visMode+0x2>
    2b5c:	80 93 93 00 	sts	0x0093, r24	; 0x800093 <visMode+0x7>
    2b60:	10 92 8f 00 	sts	0x008F, r1	; 0x80008f <visMode+0x3>
    2b64:	10 92 90 00 	sts	0x0090, r1	; 0x800090 <visMode+0x4>
    2b68:	10 92 91 00 	sts	0x0091, r1	; 0x800091 <visMode+0x5>
    2b6c:	10 92 92 00 	sts	0x0092, r1	; 0x800092 <visMode+0x6>
    2b70:	80 e0       	ldi	r24, 0x00	; 0
    2b72:	0e 94 13 0a 	call	0x1426	; 0x1426 <ikb_key_was_read>
    2b76:	81 e0       	ldi	r24, 0x01	; 1
    2b78:	0e 94 13 0a 	call	0x1426	; 0x1426 <ikb_key_was_read>
    2b7c:	82 e0       	ldi	r24, 0x02	; 2
    2b7e:	0e 94 f4 09 	call	0x13e8	; 0x13e8 <ikb_get_AtTimeExpired_BeforeOrAfter>
    2b82:	81 11       	cpse	r24, r1
    2b84:	08 c0       	rjmp	.+16     	; 0x2b96 <main+0x396>
    2b86:	82 e0       	ldi	r24, 0x02	; 2
    2b88:	0e 94 ff 09 	call	0x13fe	; 0x13fe <ikb_key_is_ready2read>
    2b8c:	88 23       	and	r24, r24
    2b8e:	19 f0       	breq	.+6      	; 0x2b96 <main+0x396>
    2b90:	82 e0       	ldi	r24, 0x02	; 2
    2b92:	0e 94 13 0a 	call	0x1426	; 0x1426 <ikb_key_was_read>
    2b96:	83 e0       	ldi	r24, 0x03	; 3
    2b98:	0e 94 f4 09 	call	0x13e8	; 0x13e8 <ikb_get_AtTimeExpired_BeforeOrAfter>
    2b9c:	81 11       	cpse	r24, r1
    2b9e:	08 c0       	rjmp	.+16     	; 0x2bb0 <main+0x3b0>
    2ba0:	83 e0       	ldi	r24, 0x03	; 3
    2ba2:	0e 94 ff 09 	call	0x13fe	; 0x13fe <ikb_key_is_ready2read>
    2ba6:	88 23       	and	r24, r24
    2ba8:	19 f0       	breq	.+6      	; 0x2bb0 <main+0x3b0>
    2baa:	83 e0       	ldi	r24, 0x03	; 3
    2bac:	0e 94 13 0a 	call	0x1426	; 0x1426 <ikb_key_was_read>
    2bb0:	82 e0       	ldi	r24, 0x02	; 2
    2bb2:	0e 94 f4 09 	call	0x13e8	; 0x13e8 <ikb_get_AtTimeExpired_BeforeOrAfter>
    2bb6:	81 30       	cpi	r24, 0x01	; 1
    2bb8:	d1 f5       	brne	.+116    	; 0x2c2e <main+0x42e>
    2bba:	82 e0       	ldi	r24, 0x02	; 2
    2bbc:	0e 94 ff 09 	call	0x13fe	; 0x13fe <ikb_key_is_ready2read>
    2bc0:	88 23       	and	r24, r24
    2bc2:	a9 f1       	breq	.+106    	; 0x2c2e <main+0x42e>
    2bc4:	83 e0       	ldi	r24, 0x03	; 3
    2bc6:	0e 94 f4 09 	call	0x13e8	; 0x13e8 <ikb_get_AtTimeExpired_BeforeOrAfter>
    2bca:	08 2f       	mov	r16, r24
    2bcc:	81 30       	cpi	r24, 0x01	; 1
    2bce:	79 f5       	brne	.+94     	; 0x2c2e <main+0x42e>
    2bd0:	83 e0       	ldi	r24, 0x03	; 3
    2bd2:	0e 94 ff 09 	call	0x13fe	; 0x13fe <ikb_key_is_ready2read>
    2bd6:	88 23       	and	r24, r24
    2bd8:	51 f1       	breq	.+84     	; 0x2c2e <main+0x42e>
    2bda:	82 e0       	ldi	r24, 0x02	; 2
    2bdc:	0e 94 13 0a 	call	0x1426	; 0x1426 <ikb_key_was_read>
    2be0:	83 e0       	ldi	r24, 0x03	; 3
    2be2:	0e 94 13 0a 	call	0x1426	; 0x1426 <ikb_key_was_read>
    2be6:	0e 94 2d 13 	call	0x265a	; 0x265a <pump_stop>
    2bea:	0e 94 2e 0f 	call	0x1e5c	; 0x1e5c <mpap_stall>
    2bee:	00 93 30 01 	sts	0x0130, r16	; 0x800130 <funcMach>
    2bf2:	82 e0       	ldi	r24, 0x02	; 2
    2bf4:	80 93 2f 01 	sts	0x012F, r24	; 0x80012f <disp_owner>
    2bf8:	80 e0       	ldi	r24, 0x00	; 0
    2bfa:	0e 94 c6 03 	call	0x78c	; 0x78c <configMode_init>
    2bfe:	93 98       	cbi	0x12, 3	; 18
    2c00:	86 e0       	ldi	r24, 0x06	; 6
    2c02:	e0 ea       	ldi	r30, 0xA0	; 160
    2c04:	f0 e0       	ldi	r31, 0x00	; 0
    2c06:	de 01       	movw	r26, r28
    2c08:	11 96       	adiw	r26, 0x01	; 1
    2c0a:	01 90       	ld	r0, Z+
    2c0c:	0d 92       	st	X+, r0
    2c0e:	8a 95       	dec	r24
    2c10:	e1 f7       	brne	.-8      	; 0x2c0a <main+0x40a>
    2c12:	29 81       	ldd	r18, Y+1	; 0x01
    2c14:	21 60       	ori	r18, 0x01	; 1
    2c16:	29 83       	std	Y+1, r18	; 0x01
    2c18:	3a 81       	ldd	r19, Y+2	; 0x02
    2c1a:	4b 81       	ldd	r20, Y+3	; 0x03
    2c1c:	5c 81       	ldd	r21, Y+4	; 0x04
    2c1e:	6d 81       	ldd	r22, Y+5	; 0x05
    2c20:	7e 81       	ldd	r23, Y+6	; 0x06
    2c22:	84 e0       	ldi	r24, 0x04	; 4
    2c24:	0e 94 80 09 	call	0x1300	; 0x1300 <ikb_setKeyProp>
    2c28:	81 e0       	ldi	r24, 0x01	; 1
    2c2a:	0e 94 3a 06 	call	0xc74	; 0xc74 <disp7s_setBlink_qty>
    2c2e:	0e 94 ad 13 	call	0x275a	; 0x275a <visMode_job>
    2c32:	0e 94 bc 08 	call	0x1178	; 0x1178 <flushAllMode_job>
    2c36:	0e 94 34 13 	call	0x2668	; 0x2668 <pump_job>
    2c3a:	69 ce       	rjmp	.-814    	; 0x290e <main+0x10e>
    2c3c:	81 30       	cpi	r24, 0x01	; 1
    2c3e:	01 f5       	brne	.+64     	; 0x2c80 <main+0x480>
    2c40:	0e 94 cc 03 	call	0x798	; 0x798 <configMode_job>
    2c44:	88 23       	and	r24, r24
    2c46:	c9 f0       	breq	.+50     	; 0x2c7a <main+0x47a>
    2c48:	10 92 30 01 	sts	0x0130, r1	; 0x800130 <funcMach>
    2c4c:	80 91 3b 01 	lds	r24, 0x013B	; 0x80013b <psFlag>
    2c50:	8a 7f       	andi	r24, 0xFA	; 250
    2c52:	81 60       	ori	r24, 0x01	; 1
    2c54:	80 93 3b 01 	sts	0x013B, r24	; 0x80013b <psFlag>
    2c58:	10 92 2f 01 	sts	0x012F, r1	; 0x80012f <disp_owner>
    2c5c:	10 93 29 01 	sts	0x0129, r17	; 0x800129 <startSig_last>
    2c60:	10 92 8e 00 	sts	0x008E, r1	; 0x80008e <visMode+0x2>
    2c64:	10 92 8f 00 	sts	0x008F, r1	; 0x80008f <visMode+0x3>
    2c68:	10 92 90 00 	sts	0x0090, r1	; 0x800090 <visMode+0x4>
    2c6c:	10 92 91 00 	sts	0x0091, r1	; 0x800091 <visMode+0x5>
    2c70:	10 92 92 00 	sts	0x0092, r1	; 0x800092 <visMode+0x6>
    2c74:	10 92 93 00 	sts	0x0093, r1	; 0x800093 <visMode+0x7>
    2c78:	93 9a       	sbi	0x12, 3	; 18
    2c7a:	0e 94 25 09 	call	0x124a	; 0x124a <flushAtNozzle_job>
    2c7e:	db cf       	rjmp	.-74     	; 0x2c36 <main+0x436>
    2c80:	82 30       	cpi	r24, 0x02	; 2
    2c82:	c9 f6       	brne	.-78     	; 0x2c36 <main+0x436>
    2c84:	01 11       	cpse	r16, r1
    2c86:	17 c0       	rjmp	.+46     	; 0x2cb6 <main+0x4b6>
    2c88:	84 e0       	ldi	r24, 0x04	; 4
    2c8a:	0e 94 ff 09 	call	0x13fe	; 0x13fe <ikb_key_is_ready2read>
    2c8e:	88 23       	and	r24, r24
    2c90:	91 f0       	breq	.+36     	; 0x2cb6 <main+0x4b6>
    2c92:	10 92 4d 01 	sts	0x014D, r1	; 0x80014d <pulsonic>
    2c96:	10 92 8e 00 	sts	0x008E, r1	; 0x80008e <visMode+0x2>
    2c9a:	10 92 8f 00 	sts	0x008F, r1	; 0x80008f <visMode+0x3>
    2c9e:	10 92 90 00 	sts	0x0090, r1	; 0x800090 <visMode+0x4>
    2ca2:	10 92 91 00 	sts	0x0091, r1	; 0x800091 <visMode+0x5>
    2ca6:	10 92 92 00 	sts	0x0092, r1	; 0x800092 <visMode+0x6>
    2caa:	10 92 93 00 	sts	0x0093, r1	; 0x800093 <visMode+0x7>
    2cae:	f8 94       	cli
    2cb0:	88 e0       	ldi	r24, 0x08	; 8
    2cb2:	81 bd       	out	0x21, r24	; 33
    2cb4:	ff cf       	rjmp	.-2      	; 0x2cb4 <main+0x4b4>
    2cb6:	0e 94 7d 0c 	call	0x18fa	; 0x18fa <ikb_flush>
    2cba:	bd cf       	rjmp	.-134    	; 0x2c36 <main+0x436>

00002cbc <__divmodhi4>:
    2cbc:	97 fb       	bst	r25, 7
    2cbe:	07 2e       	mov	r0, r23
    2cc0:	16 f4       	brtc	.+4      	; 0x2cc6 <__divmodhi4+0xa>
    2cc2:	00 94       	com	r0
    2cc4:	07 d0       	rcall	.+14     	; 0x2cd4 <__divmodhi4_neg1>
    2cc6:	77 fd       	sbrc	r23, 7
    2cc8:	09 d0       	rcall	.+18     	; 0x2cdc <__divmodhi4_neg2>
    2cca:	0e 94 72 16 	call	0x2ce4	; 0x2ce4 <__udivmodhi4>
    2cce:	07 fc       	sbrc	r0, 7
    2cd0:	05 d0       	rcall	.+10     	; 0x2cdc <__divmodhi4_neg2>
    2cd2:	3e f4       	brtc	.+14     	; 0x2ce2 <__divmodhi4_exit>

00002cd4 <__divmodhi4_neg1>:
    2cd4:	90 95       	com	r25
    2cd6:	81 95       	neg	r24
    2cd8:	9f 4f       	sbci	r25, 0xFF	; 255
    2cda:	08 95       	ret

00002cdc <__divmodhi4_neg2>:
    2cdc:	70 95       	com	r23
    2cde:	61 95       	neg	r22
    2ce0:	7f 4f       	sbci	r23, 0xFF	; 255

00002ce2 <__divmodhi4_exit>:
    2ce2:	08 95       	ret

00002ce4 <__udivmodhi4>:
    2ce4:	aa 1b       	sub	r26, r26
    2ce6:	bb 1b       	sub	r27, r27
    2ce8:	51 e1       	ldi	r21, 0x11	; 17
    2cea:	07 c0       	rjmp	.+14     	; 0x2cfa <__udivmodhi4_ep>

00002cec <__udivmodhi4_loop>:
    2cec:	aa 1f       	adc	r26, r26
    2cee:	bb 1f       	adc	r27, r27
    2cf0:	a6 17       	cp	r26, r22
    2cf2:	b7 07       	cpc	r27, r23
    2cf4:	10 f0       	brcs	.+4      	; 0x2cfa <__udivmodhi4_ep>
    2cf6:	a6 1b       	sub	r26, r22
    2cf8:	b7 0b       	sbc	r27, r23

00002cfa <__udivmodhi4_ep>:
    2cfa:	88 1f       	adc	r24, r24
    2cfc:	99 1f       	adc	r25, r25
    2cfe:	5a 95       	dec	r21
    2d00:	a9 f7       	brne	.-22     	; 0x2cec <__udivmodhi4_loop>
    2d02:	80 95       	com	r24
    2d04:	90 95       	com	r25
    2d06:	bc 01       	movw	r22, r24
    2d08:	cd 01       	movw	r24, r26
    2d0a:	08 95       	ret

00002d0c <__subsf3>:
    2d0c:	50 58       	subi	r21, 0x80	; 128

00002d0e <__addsf3>:
    2d0e:	bb 27       	eor	r27, r27
    2d10:	aa 27       	eor	r26, r26
    2d12:	0e 94 9e 16 	call	0x2d3c	; 0x2d3c <__addsf3x>
    2d16:	0c 94 18 18 	jmp	0x3030	; 0x3030 <__fp_round>
    2d1a:	0e 94 0a 18 	call	0x3014	; 0x3014 <__fp_pscA>
    2d1e:	38 f0       	brcs	.+14     	; 0x2d2e <__addsf3+0x20>
    2d20:	0e 94 11 18 	call	0x3022	; 0x3022 <__fp_pscB>
    2d24:	20 f0       	brcs	.+8      	; 0x2d2e <__addsf3+0x20>
    2d26:	39 f4       	brne	.+14     	; 0x2d36 <__addsf3+0x28>
    2d28:	9f 3f       	cpi	r25, 0xFF	; 255
    2d2a:	19 f4       	brne	.+6      	; 0x2d32 <__addsf3+0x24>
    2d2c:	26 f4       	brtc	.+8      	; 0x2d36 <__addsf3+0x28>
    2d2e:	0c 94 07 18 	jmp	0x300e	; 0x300e <__fp_nan>
    2d32:	0e f4       	brtc	.+2      	; 0x2d36 <__addsf3+0x28>
    2d34:	e0 95       	com	r30
    2d36:	e7 fb       	bst	r30, 7
    2d38:	0c 94 01 18 	jmp	0x3002	; 0x3002 <__fp_inf>

00002d3c <__addsf3x>:
    2d3c:	e9 2f       	mov	r30, r25
    2d3e:	0e 94 29 18 	call	0x3052	; 0x3052 <__fp_split3>
    2d42:	58 f3       	brcs	.-42     	; 0x2d1a <__addsf3+0xc>
    2d44:	ba 17       	cp	r27, r26
    2d46:	62 07       	cpc	r22, r18
    2d48:	73 07       	cpc	r23, r19
    2d4a:	84 07       	cpc	r24, r20
    2d4c:	95 07       	cpc	r25, r21
    2d4e:	20 f0       	brcs	.+8      	; 0x2d58 <__addsf3x+0x1c>
    2d50:	79 f4       	brne	.+30     	; 0x2d70 <__addsf3x+0x34>
    2d52:	a6 f5       	brtc	.+104    	; 0x2dbc <__addsf3x+0x80>
    2d54:	0c 94 4b 18 	jmp	0x3096	; 0x3096 <__fp_zero>
    2d58:	0e f4       	brtc	.+2      	; 0x2d5c <__addsf3x+0x20>
    2d5a:	e0 95       	com	r30
    2d5c:	0b 2e       	mov	r0, r27
    2d5e:	ba 2f       	mov	r27, r26
    2d60:	a0 2d       	mov	r26, r0
    2d62:	0b 01       	movw	r0, r22
    2d64:	b9 01       	movw	r22, r18
    2d66:	90 01       	movw	r18, r0
    2d68:	0c 01       	movw	r0, r24
    2d6a:	ca 01       	movw	r24, r20
    2d6c:	a0 01       	movw	r20, r0
    2d6e:	11 24       	eor	r1, r1
    2d70:	ff 27       	eor	r31, r31
    2d72:	59 1b       	sub	r21, r25
    2d74:	99 f0       	breq	.+38     	; 0x2d9c <__addsf3x+0x60>
    2d76:	59 3f       	cpi	r21, 0xF9	; 249
    2d78:	50 f4       	brcc	.+20     	; 0x2d8e <__addsf3x+0x52>
    2d7a:	50 3e       	cpi	r21, 0xE0	; 224
    2d7c:	68 f1       	brcs	.+90     	; 0x2dd8 <__addsf3x+0x9c>
    2d7e:	1a 16       	cp	r1, r26
    2d80:	f0 40       	sbci	r31, 0x00	; 0
    2d82:	a2 2f       	mov	r26, r18
    2d84:	23 2f       	mov	r18, r19
    2d86:	34 2f       	mov	r19, r20
    2d88:	44 27       	eor	r20, r20
    2d8a:	58 5f       	subi	r21, 0xF8	; 248
    2d8c:	f3 cf       	rjmp	.-26     	; 0x2d74 <__addsf3x+0x38>
    2d8e:	46 95       	lsr	r20
    2d90:	37 95       	ror	r19
    2d92:	27 95       	ror	r18
    2d94:	a7 95       	ror	r26
    2d96:	f0 40       	sbci	r31, 0x00	; 0
    2d98:	53 95       	inc	r21
    2d9a:	c9 f7       	brne	.-14     	; 0x2d8e <__addsf3x+0x52>
    2d9c:	7e f4       	brtc	.+30     	; 0x2dbc <__addsf3x+0x80>
    2d9e:	1f 16       	cp	r1, r31
    2da0:	ba 0b       	sbc	r27, r26
    2da2:	62 0b       	sbc	r22, r18
    2da4:	73 0b       	sbc	r23, r19
    2da6:	84 0b       	sbc	r24, r20
    2da8:	ba f0       	brmi	.+46     	; 0x2dd8 <__addsf3x+0x9c>
    2daa:	91 50       	subi	r25, 0x01	; 1
    2dac:	a1 f0       	breq	.+40     	; 0x2dd6 <__addsf3x+0x9a>
    2dae:	ff 0f       	add	r31, r31
    2db0:	bb 1f       	adc	r27, r27
    2db2:	66 1f       	adc	r22, r22
    2db4:	77 1f       	adc	r23, r23
    2db6:	88 1f       	adc	r24, r24
    2db8:	c2 f7       	brpl	.-16     	; 0x2daa <__addsf3x+0x6e>
    2dba:	0e c0       	rjmp	.+28     	; 0x2dd8 <__addsf3x+0x9c>
    2dbc:	ba 0f       	add	r27, r26
    2dbe:	62 1f       	adc	r22, r18
    2dc0:	73 1f       	adc	r23, r19
    2dc2:	84 1f       	adc	r24, r20
    2dc4:	48 f4       	brcc	.+18     	; 0x2dd8 <__addsf3x+0x9c>
    2dc6:	87 95       	ror	r24
    2dc8:	77 95       	ror	r23
    2dca:	67 95       	ror	r22
    2dcc:	b7 95       	ror	r27
    2dce:	f7 95       	ror	r31
    2dd0:	9e 3f       	cpi	r25, 0xFE	; 254
    2dd2:	08 f0       	brcs	.+2      	; 0x2dd6 <__addsf3x+0x9a>
    2dd4:	b0 cf       	rjmp	.-160    	; 0x2d36 <__addsf3+0x28>
    2dd6:	93 95       	inc	r25
    2dd8:	88 0f       	add	r24, r24
    2dda:	08 f0       	brcs	.+2      	; 0x2dde <__addsf3x+0xa2>
    2ddc:	99 27       	eor	r25, r25
    2dde:	ee 0f       	add	r30, r30
    2de0:	97 95       	ror	r25
    2de2:	87 95       	ror	r24
    2de4:	08 95       	ret

00002de6 <__cmpsf2>:
    2de6:	0e 94 dd 17 	call	0x2fba	; 0x2fba <__fp_cmp>
    2dea:	08 f4       	brcc	.+2      	; 0x2dee <__cmpsf2+0x8>
    2dec:	81 e0       	ldi	r24, 0x01	; 1
    2dee:	08 95       	ret

00002df0 <__divsf3>:
    2df0:	0e 94 0c 17 	call	0x2e18	; 0x2e18 <__divsf3x>
    2df4:	0c 94 18 18 	jmp	0x3030	; 0x3030 <__fp_round>
    2df8:	0e 94 11 18 	call	0x3022	; 0x3022 <__fp_pscB>
    2dfc:	58 f0       	brcs	.+22     	; 0x2e14 <__divsf3+0x24>
    2dfe:	0e 94 0a 18 	call	0x3014	; 0x3014 <__fp_pscA>
    2e02:	40 f0       	brcs	.+16     	; 0x2e14 <__divsf3+0x24>
    2e04:	29 f4       	brne	.+10     	; 0x2e10 <__divsf3+0x20>
    2e06:	5f 3f       	cpi	r21, 0xFF	; 255
    2e08:	29 f0       	breq	.+10     	; 0x2e14 <__divsf3+0x24>
    2e0a:	0c 94 01 18 	jmp	0x3002	; 0x3002 <__fp_inf>
    2e0e:	51 11       	cpse	r21, r1
    2e10:	0c 94 4c 18 	jmp	0x3098	; 0x3098 <__fp_szero>
    2e14:	0c 94 07 18 	jmp	0x300e	; 0x300e <__fp_nan>

00002e18 <__divsf3x>:
    2e18:	0e 94 29 18 	call	0x3052	; 0x3052 <__fp_split3>
    2e1c:	68 f3       	brcs	.-38     	; 0x2df8 <__divsf3+0x8>

00002e1e <__divsf3_pse>:
    2e1e:	99 23       	and	r25, r25
    2e20:	b1 f3       	breq	.-20     	; 0x2e0e <__divsf3+0x1e>
    2e22:	55 23       	and	r21, r21
    2e24:	91 f3       	breq	.-28     	; 0x2e0a <__divsf3+0x1a>
    2e26:	95 1b       	sub	r25, r21
    2e28:	55 0b       	sbc	r21, r21
    2e2a:	bb 27       	eor	r27, r27
    2e2c:	aa 27       	eor	r26, r26
    2e2e:	62 17       	cp	r22, r18
    2e30:	73 07       	cpc	r23, r19
    2e32:	84 07       	cpc	r24, r20
    2e34:	38 f0       	brcs	.+14     	; 0x2e44 <__divsf3_pse+0x26>
    2e36:	9f 5f       	subi	r25, 0xFF	; 255
    2e38:	5f 4f       	sbci	r21, 0xFF	; 255
    2e3a:	22 0f       	add	r18, r18
    2e3c:	33 1f       	adc	r19, r19
    2e3e:	44 1f       	adc	r20, r20
    2e40:	aa 1f       	adc	r26, r26
    2e42:	a9 f3       	breq	.-22     	; 0x2e2e <__divsf3_pse+0x10>
    2e44:	35 d0       	rcall	.+106    	; 0x2eb0 <__divsf3_pse+0x92>
    2e46:	0e 2e       	mov	r0, r30
    2e48:	3a f0       	brmi	.+14     	; 0x2e58 <__divsf3_pse+0x3a>
    2e4a:	e0 e8       	ldi	r30, 0x80	; 128
    2e4c:	32 d0       	rcall	.+100    	; 0x2eb2 <__divsf3_pse+0x94>
    2e4e:	91 50       	subi	r25, 0x01	; 1
    2e50:	50 40       	sbci	r21, 0x00	; 0
    2e52:	e6 95       	lsr	r30
    2e54:	00 1c       	adc	r0, r0
    2e56:	ca f7       	brpl	.-14     	; 0x2e4a <__divsf3_pse+0x2c>
    2e58:	2b d0       	rcall	.+86     	; 0x2eb0 <__divsf3_pse+0x92>
    2e5a:	fe 2f       	mov	r31, r30
    2e5c:	29 d0       	rcall	.+82     	; 0x2eb0 <__divsf3_pse+0x92>
    2e5e:	66 0f       	add	r22, r22
    2e60:	77 1f       	adc	r23, r23
    2e62:	88 1f       	adc	r24, r24
    2e64:	bb 1f       	adc	r27, r27
    2e66:	26 17       	cp	r18, r22
    2e68:	37 07       	cpc	r19, r23
    2e6a:	48 07       	cpc	r20, r24
    2e6c:	ab 07       	cpc	r26, r27
    2e6e:	b0 e8       	ldi	r27, 0x80	; 128
    2e70:	09 f0       	breq	.+2      	; 0x2e74 <__divsf3_pse+0x56>
    2e72:	bb 0b       	sbc	r27, r27
    2e74:	80 2d       	mov	r24, r0
    2e76:	bf 01       	movw	r22, r30
    2e78:	ff 27       	eor	r31, r31
    2e7a:	93 58       	subi	r25, 0x83	; 131
    2e7c:	5f 4f       	sbci	r21, 0xFF	; 255
    2e7e:	3a f0       	brmi	.+14     	; 0x2e8e <__divsf3_pse+0x70>
    2e80:	9e 3f       	cpi	r25, 0xFE	; 254
    2e82:	51 05       	cpc	r21, r1
    2e84:	78 f0       	brcs	.+30     	; 0x2ea4 <__divsf3_pse+0x86>
    2e86:	0c 94 01 18 	jmp	0x3002	; 0x3002 <__fp_inf>
    2e8a:	0c 94 4c 18 	jmp	0x3098	; 0x3098 <__fp_szero>
    2e8e:	5f 3f       	cpi	r21, 0xFF	; 255
    2e90:	e4 f3       	brlt	.-8      	; 0x2e8a <__divsf3_pse+0x6c>
    2e92:	98 3e       	cpi	r25, 0xE8	; 232
    2e94:	d4 f3       	brlt	.-12     	; 0x2e8a <__divsf3_pse+0x6c>
    2e96:	86 95       	lsr	r24
    2e98:	77 95       	ror	r23
    2e9a:	67 95       	ror	r22
    2e9c:	b7 95       	ror	r27
    2e9e:	f7 95       	ror	r31
    2ea0:	9f 5f       	subi	r25, 0xFF	; 255
    2ea2:	c9 f7       	brne	.-14     	; 0x2e96 <__divsf3_pse+0x78>
    2ea4:	88 0f       	add	r24, r24
    2ea6:	91 1d       	adc	r25, r1
    2ea8:	96 95       	lsr	r25
    2eaa:	87 95       	ror	r24
    2eac:	97 f9       	bld	r25, 7
    2eae:	08 95       	ret
    2eb0:	e1 e0       	ldi	r30, 0x01	; 1
    2eb2:	66 0f       	add	r22, r22
    2eb4:	77 1f       	adc	r23, r23
    2eb6:	88 1f       	adc	r24, r24
    2eb8:	bb 1f       	adc	r27, r27
    2eba:	62 17       	cp	r22, r18
    2ebc:	73 07       	cpc	r23, r19
    2ebe:	84 07       	cpc	r24, r20
    2ec0:	ba 07       	cpc	r27, r26
    2ec2:	20 f0       	brcs	.+8      	; 0x2ecc <__divsf3_pse+0xae>
    2ec4:	62 1b       	sub	r22, r18
    2ec6:	73 0b       	sbc	r23, r19
    2ec8:	84 0b       	sbc	r24, r20
    2eca:	ba 0b       	sbc	r27, r26
    2ecc:	ee 1f       	adc	r30, r30
    2ece:	88 f7       	brcc	.-30     	; 0x2eb2 <__divsf3_pse+0x94>
    2ed0:	e0 95       	com	r30
    2ed2:	08 95       	ret

00002ed4 <__fixsfsi>:
    2ed4:	0e 94 71 17 	call	0x2ee2	; 0x2ee2 <__fixunssfsi>
    2ed8:	68 94       	set
    2eda:	b1 11       	cpse	r27, r1
    2edc:	0c 94 4c 18 	jmp	0x3098	; 0x3098 <__fp_szero>
    2ee0:	08 95       	ret

00002ee2 <__fixunssfsi>:
    2ee2:	0e 94 31 18 	call	0x3062	; 0x3062 <__fp_splitA>
    2ee6:	88 f0       	brcs	.+34     	; 0x2f0a <__fixunssfsi+0x28>
    2ee8:	9f 57       	subi	r25, 0x7F	; 127
    2eea:	98 f0       	brcs	.+38     	; 0x2f12 <__fixunssfsi+0x30>
    2eec:	b9 2f       	mov	r27, r25
    2eee:	99 27       	eor	r25, r25
    2ef0:	b7 51       	subi	r27, 0x17	; 23
    2ef2:	b0 f0       	brcs	.+44     	; 0x2f20 <__fixunssfsi+0x3e>
    2ef4:	e1 f0       	breq	.+56     	; 0x2f2e <__fixunssfsi+0x4c>
    2ef6:	66 0f       	add	r22, r22
    2ef8:	77 1f       	adc	r23, r23
    2efa:	88 1f       	adc	r24, r24
    2efc:	99 1f       	adc	r25, r25
    2efe:	1a f0       	brmi	.+6      	; 0x2f06 <__fixunssfsi+0x24>
    2f00:	ba 95       	dec	r27
    2f02:	c9 f7       	brne	.-14     	; 0x2ef6 <__fixunssfsi+0x14>
    2f04:	14 c0       	rjmp	.+40     	; 0x2f2e <__fixunssfsi+0x4c>
    2f06:	b1 30       	cpi	r27, 0x01	; 1
    2f08:	91 f0       	breq	.+36     	; 0x2f2e <__fixunssfsi+0x4c>
    2f0a:	0e 94 4b 18 	call	0x3096	; 0x3096 <__fp_zero>
    2f0e:	b1 e0       	ldi	r27, 0x01	; 1
    2f10:	08 95       	ret
    2f12:	0c 94 4b 18 	jmp	0x3096	; 0x3096 <__fp_zero>
    2f16:	67 2f       	mov	r22, r23
    2f18:	78 2f       	mov	r23, r24
    2f1a:	88 27       	eor	r24, r24
    2f1c:	b8 5f       	subi	r27, 0xF8	; 248
    2f1e:	39 f0       	breq	.+14     	; 0x2f2e <__fixunssfsi+0x4c>
    2f20:	b9 3f       	cpi	r27, 0xF9	; 249
    2f22:	cc f3       	brlt	.-14     	; 0x2f16 <__fixunssfsi+0x34>
    2f24:	86 95       	lsr	r24
    2f26:	77 95       	ror	r23
    2f28:	67 95       	ror	r22
    2f2a:	b3 95       	inc	r27
    2f2c:	d9 f7       	brne	.-10     	; 0x2f24 <__fixunssfsi+0x42>
    2f2e:	3e f4       	brtc	.+14     	; 0x2f3e <__fixunssfsi+0x5c>
    2f30:	90 95       	com	r25
    2f32:	80 95       	com	r24
    2f34:	70 95       	com	r23
    2f36:	61 95       	neg	r22
    2f38:	7f 4f       	sbci	r23, 0xFF	; 255
    2f3a:	8f 4f       	sbci	r24, 0xFF	; 255
    2f3c:	9f 4f       	sbci	r25, 0xFF	; 255
    2f3e:	08 95       	ret

00002f40 <__floatunsisf>:
    2f40:	e8 94       	clt
    2f42:	09 c0       	rjmp	.+18     	; 0x2f56 <__floatsisf+0x12>

00002f44 <__floatsisf>:
    2f44:	97 fb       	bst	r25, 7
    2f46:	3e f4       	brtc	.+14     	; 0x2f56 <__floatsisf+0x12>
    2f48:	90 95       	com	r25
    2f4a:	80 95       	com	r24
    2f4c:	70 95       	com	r23
    2f4e:	61 95       	neg	r22
    2f50:	7f 4f       	sbci	r23, 0xFF	; 255
    2f52:	8f 4f       	sbci	r24, 0xFF	; 255
    2f54:	9f 4f       	sbci	r25, 0xFF	; 255
    2f56:	99 23       	and	r25, r25
    2f58:	a9 f0       	breq	.+42     	; 0x2f84 <__floatsisf+0x40>
    2f5a:	f9 2f       	mov	r31, r25
    2f5c:	96 e9       	ldi	r25, 0x96	; 150
    2f5e:	bb 27       	eor	r27, r27
    2f60:	93 95       	inc	r25
    2f62:	f6 95       	lsr	r31
    2f64:	87 95       	ror	r24
    2f66:	77 95       	ror	r23
    2f68:	67 95       	ror	r22
    2f6a:	b7 95       	ror	r27
    2f6c:	f1 11       	cpse	r31, r1
    2f6e:	f8 cf       	rjmp	.-16     	; 0x2f60 <__floatsisf+0x1c>
    2f70:	fa f4       	brpl	.+62     	; 0x2fb0 <__floatsisf+0x6c>
    2f72:	bb 0f       	add	r27, r27
    2f74:	11 f4       	brne	.+4      	; 0x2f7a <__floatsisf+0x36>
    2f76:	60 ff       	sbrs	r22, 0
    2f78:	1b c0       	rjmp	.+54     	; 0x2fb0 <__floatsisf+0x6c>
    2f7a:	6f 5f       	subi	r22, 0xFF	; 255
    2f7c:	7f 4f       	sbci	r23, 0xFF	; 255
    2f7e:	8f 4f       	sbci	r24, 0xFF	; 255
    2f80:	9f 4f       	sbci	r25, 0xFF	; 255
    2f82:	16 c0       	rjmp	.+44     	; 0x2fb0 <__floatsisf+0x6c>
    2f84:	88 23       	and	r24, r24
    2f86:	11 f0       	breq	.+4      	; 0x2f8c <__floatsisf+0x48>
    2f88:	96 e9       	ldi	r25, 0x96	; 150
    2f8a:	11 c0       	rjmp	.+34     	; 0x2fae <__floatsisf+0x6a>
    2f8c:	77 23       	and	r23, r23
    2f8e:	21 f0       	breq	.+8      	; 0x2f98 <__floatsisf+0x54>
    2f90:	9e e8       	ldi	r25, 0x8E	; 142
    2f92:	87 2f       	mov	r24, r23
    2f94:	76 2f       	mov	r23, r22
    2f96:	05 c0       	rjmp	.+10     	; 0x2fa2 <__floatsisf+0x5e>
    2f98:	66 23       	and	r22, r22
    2f9a:	71 f0       	breq	.+28     	; 0x2fb8 <__floatsisf+0x74>
    2f9c:	96 e8       	ldi	r25, 0x86	; 134
    2f9e:	86 2f       	mov	r24, r22
    2fa0:	70 e0       	ldi	r23, 0x00	; 0
    2fa2:	60 e0       	ldi	r22, 0x00	; 0
    2fa4:	2a f0       	brmi	.+10     	; 0x2fb0 <__floatsisf+0x6c>
    2fa6:	9a 95       	dec	r25
    2fa8:	66 0f       	add	r22, r22
    2faa:	77 1f       	adc	r23, r23
    2fac:	88 1f       	adc	r24, r24
    2fae:	da f7       	brpl	.-10     	; 0x2fa6 <__floatsisf+0x62>
    2fb0:	88 0f       	add	r24, r24
    2fb2:	96 95       	lsr	r25
    2fb4:	87 95       	ror	r24
    2fb6:	97 f9       	bld	r25, 7
    2fb8:	08 95       	ret

00002fba <__fp_cmp>:
    2fba:	99 0f       	add	r25, r25
    2fbc:	00 08       	sbc	r0, r0
    2fbe:	55 0f       	add	r21, r21
    2fc0:	aa 0b       	sbc	r26, r26
    2fc2:	e0 e8       	ldi	r30, 0x80	; 128
    2fc4:	fe ef       	ldi	r31, 0xFE	; 254
    2fc6:	16 16       	cp	r1, r22
    2fc8:	17 06       	cpc	r1, r23
    2fca:	e8 07       	cpc	r30, r24
    2fcc:	f9 07       	cpc	r31, r25
    2fce:	c0 f0       	brcs	.+48     	; 0x3000 <__fp_cmp+0x46>
    2fd0:	12 16       	cp	r1, r18
    2fd2:	13 06       	cpc	r1, r19
    2fd4:	e4 07       	cpc	r30, r20
    2fd6:	f5 07       	cpc	r31, r21
    2fd8:	98 f0       	brcs	.+38     	; 0x3000 <__fp_cmp+0x46>
    2fda:	62 1b       	sub	r22, r18
    2fdc:	73 0b       	sbc	r23, r19
    2fde:	84 0b       	sbc	r24, r20
    2fe0:	95 0b       	sbc	r25, r21
    2fe2:	39 f4       	brne	.+14     	; 0x2ff2 <__fp_cmp+0x38>
    2fe4:	0a 26       	eor	r0, r26
    2fe6:	61 f0       	breq	.+24     	; 0x3000 <__fp_cmp+0x46>
    2fe8:	23 2b       	or	r18, r19
    2fea:	24 2b       	or	r18, r20
    2fec:	25 2b       	or	r18, r21
    2fee:	21 f4       	brne	.+8      	; 0x2ff8 <__fp_cmp+0x3e>
    2ff0:	08 95       	ret
    2ff2:	0a 26       	eor	r0, r26
    2ff4:	09 f4       	brne	.+2      	; 0x2ff8 <__fp_cmp+0x3e>
    2ff6:	a1 40       	sbci	r26, 0x01	; 1
    2ff8:	a6 95       	lsr	r26
    2ffa:	8f ef       	ldi	r24, 0xFF	; 255
    2ffc:	81 1d       	adc	r24, r1
    2ffe:	81 1d       	adc	r24, r1
    3000:	08 95       	ret

00003002 <__fp_inf>:
    3002:	97 f9       	bld	r25, 7
    3004:	9f 67       	ori	r25, 0x7F	; 127
    3006:	80 e8       	ldi	r24, 0x80	; 128
    3008:	70 e0       	ldi	r23, 0x00	; 0
    300a:	60 e0       	ldi	r22, 0x00	; 0
    300c:	08 95       	ret

0000300e <__fp_nan>:
    300e:	9f ef       	ldi	r25, 0xFF	; 255
    3010:	80 ec       	ldi	r24, 0xC0	; 192
    3012:	08 95       	ret

00003014 <__fp_pscA>:
    3014:	00 24       	eor	r0, r0
    3016:	0a 94       	dec	r0
    3018:	16 16       	cp	r1, r22
    301a:	17 06       	cpc	r1, r23
    301c:	18 06       	cpc	r1, r24
    301e:	09 06       	cpc	r0, r25
    3020:	08 95       	ret

00003022 <__fp_pscB>:
    3022:	00 24       	eor	r0, r0
    3024:	0a 94       	dec	r0
    3026:	12 16       	cp	r1, r18
    3028:	13 06       	cpc	r1, r19
    302a:	14 06       	cpc	r1, r20
    302c:	05 06       	cpc	r0, r21
    302e:	08 95       	ret

00003030 <__fp_round>:
    3030:	09 2e       	mov	r0, r25
    3032:	03 94       	inc	r0
    3034:	00 0c       	add	r0, r0
    3036:	11 f4       	brne	.+4      	; 0x303c <__fp_round+0xc>
    3038:	88 23       	and	r24, r24
    303a:	52 f0       	brmi	.+20     	; 0x3050 <__fp_round+0x20>
    303c:	bb 0f       	add	r27, r27
    303e:	40 f4       	brcc	.+16     	; 0x3050 <__fp_round+0x20>
    3040:	bf 2b       	or	r27, r31
    3042:	11 f4       	brne	.+4      	; 0x3048 <__fp_round+0x18>
    3044:	60 ff       	sbrs	r22, 0
    3046:	04 c0       	rjmp	.+8      	; 0x3050 <__fp_round+0x20>
    3048:	6f 5f       	subi	r22, 0xFF	; 255
    304a:	7f 4f       	sbci	r23, 0xFF	; 255
    304c:	8f 4f       	sbci	r24, 0xFF	; 255
    304e:	9f 4f       	sbci	r25, 0xFF	; 255
    3050:	08 95       	ret

00003052 <__fp_split3>:
    3052:	57 fd       	sbrc	r21, 7
    3054:	90 58       	subi	r25, 0x80	; 128
    3056:	44 0f       	add	r20, r20
    3058:	55 1f       	adc	r21, r21
    305a:	59 f0       	breq	.+22     	; 0x3072 <__fp_splitA+0x10>
    305c:	5f 3f       	cpi	r21, 0xFF	; 255
    305e:	71 f0       	breq	.+28     	; 0x307c <__fp_splitA+0x1a>
    3060:	47 95       	ror	r20

00003062 <__fp_splitA>:
    3062:	88 0f       	add	r24, r24
    3064:	97 fb       	bst	r25, 7
    3066:	99 1f       	adc	r25, r25
    3068:	61 f0       	breq	.+24     	; 0x3082 <__fp_splitA+0x20>
    306a:	9f 3f       	cpi	r25, 0xFF	; 255
    306c:	79 f0       	breq	.+30     	; 0x308c <__fp_splitA+0x2a>
    306e:	87 95       	ror	r24
    3070:	08 95       	ret
    3072:	12 16       	cp	r1, r18
    3074:	13 06       	cpc	r1, r19
    3076:	14 06       	cpc	r1, r20
    3078:	55 1f       	adc	r21, r21
    307a:	f2 cf       	rjmp	.-28     	; 0x3060 <__fp_split3+0xe>
    307c:	46 95       	lsr	r20
    307e:	f1 df       	rcall	.-30     	; 0x3062 <__fp_splitA>
    3080:	08 c0       	rjmp	.+16     	; 0x3092 <__fp_splitA+0x30>
    3082:	16 16       	cp	r1, r22
    3084:	17 06       	cpc	r1, r23
    3086:	18 06       	cpc	r1, r24
    3088:	99 1f       	adc	r25, r25
    308a:	f1 cf       	rjmp	.-30     	; 0x306e <__fp_splitA+0xc>
    308c:	86 95       	lsr	r24
    308e:	71 05       	cpc	r23, r1
    3090:	61 05       	cpc	r22, r1
    3092:	08 94       	sec
    3094:	08 95       	ret

00003096 <__fp_zero>:
    3096:	e8 94       	clt

00003098 <__fp_szero>:
    3098:	bb 27       	eor	r27, r27
    309a:	66 27       	eor	r22, r22
    309c:	77 27       	eor	r23, r23
    309e:	cb 01       	movw	r24, r22
    30a0:	97 f9       	bld	r25, 7
    30a2:	08 95       	ret

000030a4 <__gesf2>:
    30a4:	0e 94 dd 17 	call	0x2fba	; 0x2fba <__fp_cmp>
    30a8:	08 f4       	brcc	.+2      	; 0x30ac <__gesf2+0x8>
    30aa:	8f ef       	ldi	r24, 0xFF	; 255
    30ac:	08 95       	ret

000030ae <__mulsf3>:
    30ae:	0e 94 6a 18 	call	0x30d4	; 0x30d4 <__mulsf3x>
    30b2:	0c 94 18 18 	jmp	0x3030	; 0x3030 <__fp_round>
    30b6:	0e 94 0a 18 	call	0x3014	; 0x3014 <__fp_pscA>
    30ba:	38 f0       	brcs	.+14     	; 0x30ca <__mulsf3+0x1c>
    30bc:	0e 94 11 18 	call	0x3022	; 0x3022 <__fp_pscB>
    30c0:	20 f0       	brcs	.+8      	; 0x30ca <__mulsf3+0x1c>
    30c2:	95 23       	and	r25, r21
    30c4:	11 f0       	breq	.+4      	; 0x30ca <__mulsf3+0x1c>
    30c6:	0c 94 01 18 	jmp	0x3002	; 0x3002 <__fp_inf>
    30ca:	0c 94 07 18 	jmp	0x300e	; 0x300e <__fp_nan>
    30ce:	11 24       	eor	r1, r1
    30d0:	0c 94 4c 18 	jmp	0x3098	; 0x3098 <__fp_szero>

000030d4 <__mulsf3x>:
    30d4:	0e 94 29 18 	call	0x3052	; 0x3052 <__fp_split3>
    30d8:	70 f3       	brcs	.-36     	; 0x30b6 <__mulsf3+0x8>

000030da <__mulsf3_pse>:
    30da:	95 9f       	mul	r25, r21
    30dc:	c1 f3       	breq	.-16     	; 0x30ce <__mulsf3+0x20>
    30de:	95 0f       	add	r25, r21
    30e0:	50 e0       	ldi	r21, 0x00	; 0
    30e2:	55 1f       	adc	r21, r21
    30e4:	62 9f       	mul	r22, r18
    30e6:	f0 01       	movw	r30, r0
    30e8:	72 9f       	mul	r23, r18
    30ea:	bb 27       	eor	r27, r27
    30ec:	f0 0d       	add	r31, r0
    30ee:	b1 1d       	adc	r27, r1
    30f0:	63 9f       	mul	r22, r19
    30f2:	aa 27       	eor	r26, r26
    30f4:	f0 0d       	add	r31, r0
    30f6:	b1 1d       	adc	r27, r1
    30f8:	aa 1f       	adc	r26, r26
    30fa:	64 9f       	mul	r22, r20
    30fc:	66 27       	eor	r22, r22
    30fe:	b0 0d       	add	r27, r0
    3100:	a1 1d       	adc	r26, r1
    3102:	66 1f       	adc	r22, r22
    3104:	82 9f       	mul	r24, r18
    3106:	22 27       	eor	r18, r18
    3108:	b0 0d       	add	r27, r0
    310a:	a1 1d       	adc	r26, r1
    310c:	62 1f       	adc	r22, r18
    310e:	73 9f       	mul	r23, r19
    3110:	b0 0d       	add	r27, r0
    3112:	a1 1d       	adc	r26, r1
    3114:	62 1f       	adc	r22, r18
    3116:	83 9f       	mul	r24, r19
    3118:	a0 0d       	add	r26, r0
    311a:	61 1d       	adc	r22, r1
    311c:	22 1f       	adc	r18, r18
    311e:	74 9f       	mul	r23, r20
    3120:	33 27       	eor	r19, r19
    3122:	a0 0d       	add	r26, r0
    3124:	61 1d       	adc	r22, r1
    3126:	23 1f       	adc	r18, r19
    3128:	84 9f       	mul	r24, r20
    312a:	60 0d       	add	r22, r0
    312c:	21 1d       	adc	r18, r1
    312e:	82 2f       	mov	r24, r18
    3130:	76 2f       	mov	r23, r22
    3132:	6a 2f       	mov	r22, r26
    3134:	11 24       	eor	r1, r1
    3136:	9f 57       	subi	r25, 0x7F	; 127
    3138:	50 40       	sbci	r21, 0x00	; 0
    313a:	9a f0       	brmi	.+38     	; 0x3162 <__mulsf3_pse+0x88>
    313c:	f1 f0       	breq	.+60     	; 0x317a <__mulsf3_pse+0xa0>
    313e:	88 23       	and	r24, r24
    3140:	4a f0       	brmi	.+18     	; 0x3154 <__mulsf3_pse+0x7a>
    3142:	ee 0f       	add	r30, r30
    3144:	ff 1f       	adc	r31, r31
    3146:	bb 1f       	adc	r27, r27
    3148:	66 1f       	adc	r22, r22
    314a:	77 1f       	adc	r23, r23
    314c:	88 1f       	adc	r24, r24
    314e:	91 50       	subi	r25, 0x01	; 1
    3150:	50 40       	sbci	r21, 0x00	; 0
    3152:	a9 f7       	brne	.-22     	; 0x313e <__mulsf3_pse+0x64>
    3154:	9e 3f       	cpi	r25, 0xFE	; 254
    3156:	51 05       	cpc	r21, r1
    3158:	80 f0       	brcs	.+32     	; 0x317a <__mulsf3_pse+0xa0>
    315a:	0c 94 01 18 	jmp	0x3002	; 0x3002 <__fp_inf>
    315e:	0c 94 4c 18 	jmp	0x3098	; 0x3098 <__fp_szero>
    3162:	5f 3f       	cpi	r21, 0xFF	; 255
    3164:	e4 f3       	brlt	.-8      	; 0x315e <__mulsf3_pse+0x84>
    3166:	98 3e       	cpi	r25, 0xE8	; 232
    3168:	d4 f3       	brlt	.-12     	; 0x315e <__mulsf3_pse+0x84>
    316a:	86 95       	lsr	r24
    316c:	77 95       	ror	r23
    316e:	67 95       	ror	r22
    3170:	b7 95       	ror	r27
    3172:	f7 95       	ror	r31
    3174:	e7 95       	ror	r30
    3176:	9f 5f       	subi	r25, 0xFF	; 255
    3178:	c1 f7       	brne	.-16     	; 0x316a <__mulsf3_pse+0x90>
    317a:	fe 2b       	or	r31, r30
    317c:	88 0f       	add	r24, r24
    317e:	91 1d       	adc	r25, r1
    3180:	96 95       	lsr	r25
    3182:	87 95       	ror	r24
    3184:	97 f9       	bld	r25, 7
    3186:	08 95       	ret

00003188 <memset>:
    3188:	dc 01       	movw	r26, r24
    318a:	01 c0       	rjmp	.+2      	; 0x318e <memset+0x6>
    318c:	6d 93       	st	X+, r22
    318e:	41 50       	subi	r20, 0x01	; 1
    3190:	50 40       	sbci	r21, 0x00	; 0
    3192:	e0 f7       	brcc	.-8      	; 0x318c <memset+0x4>
    3194:	08 95       	ret

00003196 <__itoa_ncheck>:
    3196:	bb 27       	eor	r27, r27
    3198:	4a 30       	cpi	r20, 0x0A	; 10
    319a:	31 f4       	brne	.+12     	; 0x31a8 <__itoa_ncheck+0x12>
    319c:	99 23       	and	r25, r25
    319e:	22 f4       	brpl	.+8      	; 0x31a8 <__itoa_ncheck+0x12>
    31a0:	bd e2       	ldi	r27, 0x2D	; 45
    31a2:	90 95       	com	r25
    31a4:	81 95       	neg	r24
    31a6:	9f 4f       	sbci	r25, 0xFF	; 255
    31a8:	0c 94 d7 18 	jmp	0x31ae	; 0x31ae <__utoa_common>

000031ac <__utoa_ncheck>:
    31ac:	bb 27       	eor	r27, r27

000031ae <__utoa_common>:
    31ae:	fb 01       	movw	r30, r22
    31b0:	55 27       	eor	r21, r21
    31b2:	aa 27       	eor	r26, r26
    31b4:	88 0f       	add	r24, r24
    31b6:	99 1f       	adc	r25, r25
    31b8:	aa 1f       	adc	r26, r26
    31ba:	a4 17       	cp	r26, r20
    31bc:	10 f0       	brcs	.+4      	; 0x31c2 <__utoa_common+0x14>
    31be:	a4 1b       	sub	r26, r20
    31c0:	83 95       	inc	r24
    31c2:	50 51       	subi	r21, 0x10	; 16
    31c4:	b9 f7       	brne	.-18     	; 0x31b4 <__utoa_common+0x6>
    31c6:	a0 5d       	subi	r26, 0xD0	; 208
    31c8:	aa 33       	cpi	r26, 0x3A	; 58
    31ca:	08 f0       	brcs	.+2      	; 0x31ce <__utoa_common+0x20>
    31cc:	a9 5d       	subi	r26, 0xD9	; 217
    31ce:	a1 93       	st	Z+, r26
    31d0:	00 97       	sbiw	r24, 0x00	; 0
    31d2:	79 f7       	brne	.-34     	; 0x31b2 <__utoa_common+0x4>
    31d4:	b1 11       	cpse	r27, r1
    31d6:	b1 93       	st	Z+, r27
    31d8:	11 92       	st	Z+, r1
    31da:	cb 01       	movw	r24, r22
    31dc:	0c 94 f0 18 	jmp	0x31e0	; 0x31e0 <strrev>

000031e0 <strrev>:
    31e0:	dc 01       	movw	r26, r24
    31e2:	fc 01       	movw	r30, r24
    31e4:	67 2f       	mov	r22, r23
    31e6:	71 91       	ld	r23, Z+
    31e8:	77 23       	and	r23, r23
    31ea:	e1 f7       	brne	.-8      	; 0x31e4 <strrev+0x4>
    31ec:	32 97       	sbiw	r30, 0x02	; 2
    31ee:	04 c0       	rjmp	.+8      	; 0x31f8 <strrev+0x18>
    31f0:	7c 91       	ld	r23, X
    31f2:	6d 93       	st	X+, r22
    31f4:	70 83       	st	Z, r23
    31f6:	62 91       	ld	r22, -Z
    31f8:	ae 17       	cp	r26, r30
    31fa:	bf 07       	cpc	r27, r31
    31fc:	c8 f3       	brcs	.-14     	; 0x31f0 <strrev+0x10>
    31fe:	08 95       	ret

00003200 <eeprom_read_byte>:
    3200:	e1 99       	sbic	0x1c, 1	; 28
    3202:	fe cf       	rjmp	.-4      	; 0x3200 <eeprom_read_byte>
    3204:	9f bb       	out	0x1f, r25	; 31
    3206:	8e bb       	out	0x1e, r24	; 30
    3208:	e0 9a       	sbi	0x1c, 0	; 28
    320a:	99 27       	eor	r25, r25
    320c:	8d b3       	in	r24, 0x1d	; 29
    320e:	08 95       	ret

00003210 <eeprom_read_dword>:
    3210:	a6 e1       	ldi	r26, 0x16	; 22
    3212:	b0 e0       	ldi	r27, 0x00	; 0
    3214:	44 e0       	ldi	r20, 0x04	; 4
    3216:	50 e0       	ldi	r21, 0x00	; 0
    3218:	0c 94 2d 19 	jmp	0x325a	; 0x325a <eeprom_read_blraw>

0000321c <eeprom_update_byte>:
    321c:	26 2f       	mov	r18, r22

0000321e <eeprom_update_r18>:
    321e:	e1 99       	sbic	0x1c, 1	; 28
    3220:	fe cf       	rjmp	.-4      	; 0x321e <eeprom_update_r18>
    3222:	9f bb       	out	0x1f, r25	; 31
    3224:	8e bb       	out	0x1e, r24	; 30
    3226:	e0 9a       	sbi	0x1c, 0	; 28
    3228:	01 97       	sbiw	r24, 0x01	; 1
    322a:	0d b2       	in	r0, 0x1d	; 29
    322c:	02 16       	cp	r0, r18
    322e:	31 f0       	breq	.+12     	; 0x323c <eeprom_update_r18+0x1e>
    3230:	2d bb       	out	0x1d, r18	; 29
    3232:	0f b6       	in	r0, 0x3f	; 63
    3234:	f8 94       	cli
    3236:	e2 9a       	sbi	0x1c, 2	; 28
    3238:	e1 9a       	sbi	0x1c, 1	; 28
    323a:	0f be       	out	0x3f, r0	; 63
    323c:	08 95       	ret

0000323e <eeprom_update_dword>:
    323e:	03 96       	adiw	r24, 0x03	; 3
    3240:	27 2f       	mov	r18, r23
    3242:	0e 94 0f 19 	call	0x321e	; 0x321e <eeprom_update_r18>
    3246:	0e 94 0e 19 	call	0x321c	; 0x321c <eeprom_update_byte>
    324a:	25 2f       	mov	r18, r21
    324c:	0e 94 0f 19 	call	0x321e	; 0x321e <eeprom_update_r18>
    3250:	24 2f       	mov	r18, r20
    3252:	0c 94 0f 19 	jmp	0x321e	; 0x321e <eeprom_update_r18>

00003256 <eeprom_read_block>:
    3256:	dc 01       	movw	r26, r24
    3258:	cb 01       	movw	r24, r22

0000325a <eeprom_read_blraw>:
    325a:	fc 01       	movw	r30, r24
    325c:	e1 99       	sbic	0x1c, 1	; 28
    325e:	fe cf       	rjmp	.-4      	; 0x325c <eeprom_read_blraw+0x2>
    3260:	06 c0       	rjmp	.+12     	; 0x326e <eeprom_read_blraw+0x14>
    3262:	ff bb       	out	0x1f, r31	; 31
    3264:	ee bb       	out	0x1e, r30	; 30
    3266:	e0 9a       	sbi	0x1c, 0	; 28
    3268:	31 96       	adiw	r30, 0x01	; 1
    326a:	0d b2       	in	r0, 0x1d	; 29
    326c:	0d 92       	st	X+, r0
    326e:	41 50       	subi	r20, 0x01	; 1
    3270:	50 40       	sbci	r21, 0x00	; 0
    3272:	b8 f7       	brcc	.-18     	; 0x3262 <eeprom_read_blraw+0x8>
    3274:	08 95       	ret

00003276 <_exit>:
    3276:	f8 94       	cli

00003278 <__stop_program>:
    3278:	ff cf       	rjmp	.-2      	; 0x3278 <__stop_program>
