Archive member included to satisfy reference by file (symbol)

/usr/lib/gcc/avr/10.2.0/avr5/libgcc.a(_divmodhi4.o)
                              obj/Release/flushAllMode1.o (__divmodhi4)
/usr/lib/gcc/avr/10.2.0/avr5/libgcc.a(_exit.o)
                              /usr/lib/gcc/avr/10.2.0/../../../../avr/lib/avr5/crtatmega32.o (exit)
/usr/lib/gcc/avr/10.2.0/avr5/libgcc.a(_copy_data.o)
                              obj/Release/autoMode.o (__do_copy_data)
/usr/lib/gcc/avr/10.2.0/avr5/libgcc.a(_clear_bss.o)
                              obj/Release/autoMode.o (__do_clear_bss)
/usr/lib/gcc/avr/10.2.0/avr5/libgcc.a(_udivmodhi4.o)
                              /usr/lib/gcc/avr/10.2.0/avr5/libgcc.a(_divmodhi4.o) (__udivmodhi4)
/usr/lib/gcc/avr/10.2.0/../../../../avr/lib/avr5/libm.a(addsf3.o)
                              obj/Release/autoMode.o (__subsf3)
/usr/lib/gcc/avr/10.2.0/../../../../avr/lib/avr5/libm.a(addsf3x.o)
                              /usr/lib/gcc/avr/10.2.0/../../../../avr/lib/avr5/libm.a(addsf3.o) (__addsf3x)
/usr/lib/gcc/avr/10.2.0/../../../../avr/lib/avr5/libm.a(cmpsf2.o)
                              obj/Release/configMode.o (__eqsf2)
/usr/lib/gcc/avr/10.2.0/../../../../avr/lib/avr5/libm.a(divsf3.o)
                              obj/Release/autoMode.o (__divsf3)
/usr/lib/gcc/avr/10.2.0/../../../../avr/lib/avr5/libm.a(divsf3x.o)
                              /usr/lib/gcc/avr/10.2.0/../../../../avr/lib/avr5/libm.a(divsf3.o) (__divsf3x)
/usr/lib/gcc/avr/10.2.0/../../../../avr/lib/avr5/libm.a(fixsfsi.o)
                              obj/Release/autoMode.o (__fixsfsi)
/usr/lib/gcc/avr/10.2.0/../../../../avr/lib/avr5/libm.a(fixunssfsi.o)
                              obj/Release/autoMode.o (__fixunssfsi)
/usr/lib/gcc/avr/10.2.0/../../../../avr/lib/avr5/libm.a(floatsisf.o)
                              obj/Release/autoMode.o (__floatunsisf)
/usr/lib/gcc/avr/10.2.0/../../../../avr/lib/avr5/libm.a(fp_cmp.o)
                              /usr/lib/gcc/avr/10.2.0/../../../../avr/lib/avr5/libm.a(cmpsf2.o) (__fp_cmp)
/usr/lib/gcc/avr/10.2.0/../../../../avr/lib/avr5/libm.a(fp_inf.o)
                              /usr/lib/gcc/avr/10.2.0/../../../../avr/lib/avr5/libm.a(addsf3x.o) (__fp_inf)
/usr/lib/gcc/avr/10.2.0/../../../../avr/lib/avr5/libm.a(fp_nan.o)
                              /usr/lib/gcc/avr/10.2.0/../../../../avr/lib/avr5/libm.a(addsf3x.o) (__fp_nan)
/usr/lib/gcc/avr/10.2.0/../../../../avr/lib/avr5/libm.a(fp_pscA.o)
                              /usr/lib/gcc/avr/10.2.0/../../../../avr/lib/avr5/libm.a(addsf3x.o) (__fp_pscA)
/usr/lib/gcc/avr/10.2.0/../../../../avr/lib/avr5/libm.a(fp_pscB.o)
                              /usr/lib/gcc/avr/10.2.0/../../../../avr/lib/avr5/libm.a(addsf3x.o) (__fp_pscB)
/usr/lib/gcc/avr/10.2.0/../../../../avr/lib/avr5/libm.a(fp_round.o)
                              /usr/lib/gcc/avr/10.2.0/../../../../avr/lib/avr5/libm.a(addsf3.o) (__fp_round)
/usr/lib/gcc/avr/10.2.0/../../../../avr/lib/avr5/libm.a(fp_split3.o)
                              /usr/lib/gcc/avr/10.2.0/../../../../avr/lib/avr5/libm.a(addsf3x.o) (__fp_split3)
/usr/lib/gcc/avr/10.2.0/../../../../avr/lib/avr5/libm.a(fp_zero.o)
                              /usr/lib/gcc/avr/10.2.0/../../../../avr/lib/avr5/libm.a(addsf3x.o) (__fp_zero)
/usr/lib/gcc/avr/10.2.0/../../../../avr/lib/avr5/libm.a(gesf2.o)
                              obj/Release/autoMode.o (__gesf2)
/usr/lib/gcc/avr/10.2.0/../../../../avr/lib/avr5/libm.a(mulsf3.o)
                              obj/Release/autoMode.o (__mulsf3)
/usr/lib/gcc/avr/10.2.0/../../../../avr/lib/avr5/libm.a(mulsf3x.o)
                              /usr/lib/gcc/avr/10.2.0/../../../../avr/lib/avr5/libm.a(mulsf3.o) (__mulsf3x)
/usr/lib/gcc/avr/10.2.0/../../../../avr/lib/avr5/libc.a(memset.o)
                              obj/Release/display.o (memset)
/usr/lib/gcc/avr/10.2.0/../../../../avr/lib/avr5/libc.a(itoa_ncheck.o)
                              obj/Release/display.o (__itoa_ncheck)
/usr/lib/gcc/avr/10.2.0/../../../../avr/lib/avr5/libc.a(utoa_ncheck.o)
                              /usr/lib/gcc/avr/10.2.0/../../../../avr/lib/avr5/libc.a(itoa_ncheck.o) (__utoa_common)
/usr/lib/gcc/avr/10.2.0/../../../../avr/lib/avr5/libc.a(strrev.o)
                              /usr/lib/gcc/avr/10.2.0/../../../../avr/lib/avr5/libc.a(utoa_ncheck.o) (strrev)
/usr/lib/gcc/avr/10.2.0/../../../../avr/lib/avr5/libatmega32.a(eerd_byte.o)
                              obj/Release/pulsonic.o (eeprom_read_byte)
/usr/lib/gcc/avr/10.2.0/../../../../avr/lib/avr5/libatmega32.a(eerd_dword.o)
                              obj/Release/pulsonic.o (eeprom_read_float)
/usr/lib/gcc/avr/10.2.0/../../../../avr/lib/avr5/libatmega32.a(eeupd_byte.o)
                              obj/Release/configMode.o (eeprom_update_byte)
/usr/lib/gcc/avr/10.2.0/../../../../avr/lib/avr5/libatmega32.a(eeupd_dword.o)
                              obj/Release/configMode.o (eeprom_update_float)
/usr/lib/gcc/avr/10.2.0/../../../../avr/lib/avr5/libatmega32.a(eerd_block.o)
                              /usr/lib/gcc/avr/10.2.0/../../../../avr/lib/avr5/libatmega32.a(eerd_dword.o) (eeprom_read_blraw)

Memory Configuration

Name             Origin             Length             Attributes
text             0x0000000000000000 0x0000000000020000 xr
data             0x0000000000800060 0x000000000000ffa0 rw !x
eeprom           0x0000000000810000 0x0000000000010000 rw !x
fuse             0x0000000000820000 0x0000000000000400 rw !x
lock             0x0000000000830000 0x0000000000000400 rw !x
signature        0x0000000000840000 0x0000000000000400 rw !x
user_signatures  0x0000000000850000 0x0000000000000400 rw !x
*default*        0x0000000000000000 0xffffffffffffffff

Linker script and memory map

LOAD /usr/lib/gcc/avr/10.2.0/../../../../avr/lib/avr5/crtatmega32.o
LOAD obj/Release/autoMode.o
LOAD obj/Release/configMode.o
LOAD obj/Release/display.o
LOAD obj/Release/error.o
LOAD obj/Release/flushAllMode1.o
LOAD obj/Release/flushAtNozzle.o
LOAD obj/Release/fuse.o
LOAD obj/Release/ikb.o
LOAD obj/Release/inputs.o
LOAD obj/Release/main.o
LOAD obj/Release/mpap.o
LOAD obj/Release/myeeprom.o
LOAD obj/Release/nozzle.o
LOAD obj/Release/pulsonic.o
LOAD obj/Release/pump.o
LOAD obj/Release/ustepping.o
LOAD obj/Release/visMode.o
START GROUP
LOAD /usr/lib/gcc/avr/10.2.0/avr5/libgcc.a
LOAD /usr/lib/gcc/avr/10.2.0/../../../../avr/lib/avr5/libm.a
LOAD /usr/lib/gcc/avr/10.2.0/../../../../avr/lib/avr5/libc.a
LOAD /usr/lib/gcc/avr/10.2.0/../../../../avr/lib/avr5/libatmega32.a
END GROUP
                0x0000000000020000                __TEXT_REGION_LENGTH__ = DEFINED (__TEXT_REGION_LENGTH__)?__TEXT_REGION_LENGTH__:0x20000
                0x000000000000ffa0                __DATA_REGION_LENGTH__ = DEFINED (__DATA_REGION_LENGTH__)?__DATA_REGION_LENGTH__:0xffa0
                0x0000000000010000                __EEPROM_REGION_LENGTH__ = DEFINED (__EEPROM_REGION_LENGTH__)?__EEPROM_REGION_LENGTH__:0x10000
                0x0000000000000400                __FUSE_REGION_LENGTH__ = DEFINED (__FUSE_REGION_LENGTH__)?__FUSE_REGION_LENGTH__:0x400
                0x0000000000000400                __LOCK_REGION_LENGTH__ = DEFINED (__LOCK_REGION_LENGTH__)?__LOCK_REGION_LENGTH__:0x400
                0x0000000000000400                __SIGNATURE_REGION_LENGTH__ = DEFINED (__SIGNATURE_REGION_LENGTH__)?__SIGNATURE_REGION_LENGTH__:0x400
                0x0000000000000400                __USER_SIGNATURE_REGION_LENGTH__ = DEFINED (__USER_SIGNATURE_REGION_LENGTH__)?__USER_SIGNATURE_REGION_LENGTH__:0x400

.hash
 *(.hash)

.dynsym
 *(.dynsym)

.dynstr
 *(.dynstr)

.gnu.version
 *(.gnu.version)

.gnu.version_d
 *(.gnu.version_d)

.gnu.version_r
 *(.gnu.version_r)

.rel.init
 *(.rel.init)

.rela.init
 *(.rela.init)

.rel.text
 *(.rel.text)
 *(.rel.text.*)
 *(.rel.gnu.linkonce.t*)

.rela.text
 *(.rela.text)
 *(.rela.text.*)
 *(.rela.gnu.linkonce.t*)

.rel.fini
 *(.rel.fini)

.rela.fini
 *(.rela.fini)

.rel.rodata
 *(.rel.rodata)
 *(.rel.rodata.*)
 *(.rel.gnu.linkonce.r*)

.rela.rodata
 *(.rela.rodata)
 *(.rela.rodata.*)
 *(.rela.gnu.linkonce.r*)

.rel.data
 *(.rel.data)
 *(.rel.data.*)
 *(.rel.gnu.linkonce.d*)

.rela.data
 *(.rela.data)
 *(.rela.data.*)
 *(.rela.gnu.linkonce.d*)

.rel.ctors
 *(.rel.ctors)

.rela.ctors
 *(.rela.ctors)

.rel.dtors
 *(.rel.dtors)

.rela.dtors
 *(.rela.dtors)

.rel.got
 *(.rel.got)

.rela.got
 *(.rela.got)

.rel.bss
 *(.rel.bss)

.rela.bss
 *(.rela.bss)

.rel.plt
 *(.rel.plt)

.rela.plt
 *(.rela.plt)

.text           0x0000000000000000     0x326e
 *(.vectors)
 .vectors       0x0000000000000000       0x54 /usr/lib/gcc/avr/10.2.0/../../../../avr/lib/avr5/crtatmega32.o
                0x0000000000000000                __vectors
                0x0000000000000000                __vector_default
 *(.vectors)
 *(.progmem.gcc*)
                0x0000000000000054                . = ALIGN (0x2)
                0x0000000000000054                __trampolines_start = .
 *(.trampolines)
 .trampolines   0x0000000000000054        0x0 linker stubs
 *(.trampolines*)
                0x0000000000000054                __trampolines_end = .
 *libprintf_flt.a:*(.progmem.data)
 *libc.a:*(.progmem.data)
 *(.progmem.*)
                0x0000000000000054                . = ALIGN (0x2)
 *(.lowtext)
 *(.lowtext*)
                0x0000000000000054                __ctors_start = .
 *(.ctors)
                0x0000000000000054                __ctors_end = .
                0x0000000000000054                __dtors_start = .
 *(.dtors)
                0x0000000000000054                __dtors_end = .
 SORT_BY_NAME(*)(.ctors)
 SORT_BY_NAME(*)(.dtors)
 *(.init0)
 .init0         0x0000000000000054        0x0 /usr/lib/gcc/avr/10.2.0/../../../../avr/lib/avr5/crtatmega32.o
                0x0000000000000054                __init
 *(.init0)
 *(.init1)
 *(.init1)
 *(.init2)
 .init2         0x0000000000000054        0xc /usr/lib/gcc/avr/10.2.0/../../../../avr/lib/avr5/crtatmega32.o
 *(.init2)
 *(.init3)
 *(.init3)
 *(.init4)
 .init4         0x0000000000000060       0x16 /usr/lib/gcc/avr/10.2.0/avr5/libgcc.a(_copy_data.o)
                0x0000000000000060                __do_copy_data
 .init4         0x0000000000000076       0x10 /usr/lib/gcc/avr/10.2.0/avr5/libgcc.a(_clear_bss.o)
                0x0000000000000076                __do_clear_bss
 *(.init4)
 *(.init5)
 *(.init5)
 *(.init6)
 *(.init6)
 *(.init7)
 *(.init7)
 *(.init8)
 *(.init8)
 *(.init9)
 .init9         0x0000000000000086        0x8 /usr/lib/gcc/avr/10.2.0/../../../../avr/lib/avr5/crtatmega32.o
 *(.init9)
 *(.text)
 .text          0x000000000000008e        0x4 /usr/lib/gcc/avr/10.2.0/../../../../avr/lib/avr5/crtatmega32.o
                0x000000000000008e                __vector_1
                0x000000000000008e                __vector_12
                0x000000000000008e                __bad_interrupt
                0x000000000000008e                __vector_6
                0x000000000000008e                __vector_3
                0x000000000000008e                __vector_11
                0x000000000000008e                __vector_13
                0x000000000000008e                __vector_17
                0x000000000000008e                __vector_19
                0x000000000000008e                __vector_7
                0x000000000000008e                __vector_5
                0x000000000000008e                __vector_4
                0x000000000000008e                __vector_2
                0x000000000000008e                __vector_15
                0x000000000000008e                __vector_8
                0x000000000000008e                __vector_14
                0x000000000000008e                __vector_10
                0x000000000000008e                __vector_16
                0x000000000000008e                __vector_18
                0x000000000000008e                __vector_20
 .text          0x0000000000000092      0x6fa obj/Release/autoMode.o
                0x0000000000000092                autoMode_setup
                0x000000000000031a                autoMode_disp7s_writeSumTotal
                0x0000000000000368                autoMode_cmd
                0x000000000000038c                autoMode1_job
 .text          0x000000000000078c      0x480 obj/Release/configMode.o
                0x000000000000078c                configMode_init
                0x0000000000000798                configMode_job
 .text          0x0000000000000c0c      0x528 obj/Release/display.o
                0x0000000000000c34                disp7s_init
                0x0000000000000c74                disp7s_setBlink_qty
                0x0000000000000c86                disp7s_job
                0x0000000000000d84                disp7s_off
                0x0000000000000d98                disp7s_modeDisp_off
                0x0000000000000da2                disp7s_qtyDsp_off
                0x0000000000000dac                disp7s_modeDisp_writeText_oil
                0x0000000000000dba                disp7s_qtyDisp_writeText_OFF
                0x0000000000000dcc                disp7s_qtyDisp_writeText_FFF
                0x0000000000000ddc                disp7s_qtyDisp_writeText_FLU
                0x0000000000000df0                disp7s_qtyDisp_writeText_NO_OIL
                0x0000000000000e10                disp7s_write_f
                0x0000000000001000                disp7s_qtyDisp_writeFloat
                0x000000000000100e                disp7s_modeDisp_writeFloat
                0x000000000000101c                disp7s_write_i
                0x00000000000010ea                disp7s_qtyDisp_writeInt
                0x00000000000010f6                disp7s_modeDisp_writeInt
                0x0000000000001102                disp7s_qtyDisp_writeText_20_3RAYAS
                0x000000000000111a                disp7s_qtyDisp_writeText_NO_HOME_SENSOR
 .text          0x0000000000001134        0x0 obj/Release/error.o
 .text          0x0000000000001134       0xe4 obj/Release/flushAllMode1.o
                0x0000000000001134                flushAllMode_cmd
                0x0000000000001178                flushAllMode_job
 .text          0x0000000000001218       0xb8 obj/Release/flushAtNozzle.o
                0x0000000000001218                flushAtNozzle_setNozzle
                0x000000000000121e                flushAtNozzle_cmd
                0x000000000000124a                flushAtNozzle_job
 .text          0x00000000000012d0        0x0 obj/Release/fuse.o
 .text          0x00000000000012d0      0x658 obj/Release/ikb.o
                0x0000000000001300                ikb_setKeyProp
                0x0000000000001346                ikb_init
                0x00000000000013e8                ikb_get_AtTimeExpired_BeforeOrAfter
                0x00000000000013fe                ikb_key_is_ready2read
                0x0000000000001412                ikb_set_ready2read
                0x0000000000001426                ikb_key_was_read
                0x000000000000143a                ikb_execfunct
                0x000000000000144e                ikey_scan
                0x0000000000001514                ikey_parsing
                0x0000000000001894                ikb_job
                0x000000000000189c                ikey_is_all_hw_released
                0x00000000000018c6                ikey_clear_all_flag
                0x00000000000018fa                ikb_flush
                0x00000000000018fe                ikey_is_all_process_finished
 .text          0x0000000000001928      0x10a obj/Release/inputs.o
                0x0000000000001928                startSignal_init
                0x000000000000193c                is_startSignal
                0x00000000000019a2                oilLevel_init
                0x00000000000019b8                is_oilLevel
                0x0000000000001a20                is_homeSensor
                0x0000000000001a2a                is_unblocked_nozzle
                0x0000000000001a2e                is_inductiveSensorRPM
 .text          0x0000000000001a32      0x378 obj/Release/main.o
                0x0000000000001a32                mykb_layout0
                0x0000000000001afa                __vector_9
                0x0000000000001b74                error_job
 .text          0x0000000000001daa      0x4bc obj/Release/mpap.o
                0x0000000000001dda                mpap_getMode
                0x0000000000001de0                mpap_stall
                0x0000000000001de8                mpap_doMovement
                0x0000000000001e14                mpap_get_numSteps_current
                0x0000000000001e1e                mpap_setup_searchFirstPointHomeSensor
                0x0000000000001e38                mpap_do1step
                0x0000000000001e68                mpap_job
                0x00000000000020a2                mpap_movetoNozzle
                0x00000000000020ca                mpap_isIdle
                0x00000000000020d6                mpap_homming_job_test_interrupt
                0x000000000000213a                mpap_homming_job_reset
                0x0000000000002140                mpap_homming_job
                0x00000000000021f2                motortest
                0x000000000000223c                mpap_interrupt
 .text          0x0000000000002266        0x0 obj/Release/myeeprom.o
 .text          0x0000000000002266      0x118 obj/Release/nozzle.o
                0x0000000000002266                nozzle_isEnabled
                0x00000000000022c8                nozzle_getPosition
                0x00000000000022d8                nozzle_setPosition_reset
                0x00000000000022de                nozzle_setPosition
 .text          0x000000000000237e      0x2bc obj/Release/pulsonic.o
                0x000000000000237e                pulsonic_getTotalSum_mlh
                0x0000000000002400                pulsonic_getNumNozzleAvailable
                0x0000000000002428                pulsonic_init
 .text          0x000000000000263a      0x10e obj/Release/pump.o
                0x000000000000263a                pump_setTick
                0x0000000000002644                pump_getTick
                0x000000000000264e                pump_stop
                0x000000000000265c                pump_job
                0x0000000000002736                pump_isIdle
 .text          0x0000000000002748        0x6 obj/Release/ustepping.o
                0x0000000000002748                setdc
 .text          0x000000000000274e       0xa6 obj/Release/visMode.o
                0x000000000000274e                visMode_job
 .text          0x00000000000027f4        0x0 /usr/lib/gcc/avr/10.2.0/avr5/libgcc.a(_divmodhi4.o)
 .text          0x00000000000027f4        0x0 /usr/lib/gcc/avr/10.2.0/avr5/libgcc.a(_exit.o)
 .text          0x00000000000027f4        0x0 /usr/lib/gcc/avr/10.2.0/avr5/libgcc.a(_copy_data.o)
 .text          0x00000000000027f4        0x0 /usr/lib/gcc/avr/10.2.0/avr5/libgcc.a(_clear_bss.o)
 .text          0x00000000000027f4        0x0 /usr/lib/gcc/avr/10.2.0/avr5/libgcc.a(_udivmodhi4.o)
 .text          0x00000000000027f4        0x0 /usr/lib/gcc/avr/10.2.0/../../../../avr/lib/avr5/libm.a(addsf3.o)
 .text          0x00000000000027f4        0x0 /usr/lib/gcc/avr/10.2.0/../../../../avr/lib/avr5/libm.a(addsf3x.o)
 .text          0x00000000000027f4        0x0 /usr/lib/gcc/avr/10.2.0/../../../../avr/lib/avr5/libm.a(cmpsf2.o)
 .text          0x00000000000027f4        0x0 /usr/lib/gcc/avr/10.2.0/../../../../avr/lib/avr5/libm.a(divsf3.o)
 .text          0x00000000000027f4        0x0 /usr/lib/gcc/avr/10.2.0/../../../../avr/lib/avr5/libm.a(divsf3x.o)
 .text          0x00000000000027f4        0x0 /usr/lib/gcc/avr/10.2.0/../../../../avr/lib/avr5/libm.a(fixsfsi.o)
 .text          0x00000000000027f4        0x0 /usr/lib/gcc/avr/10.2.0/../../../../avr/lib/avr5/libm.a(fixunssfsi.o)
 .text          0x00000000000027f4        0x0 /usr/lib/gcc/avr/10.2.0/../../../../avr/lib/avr5/libm.a(floatsisf.o)
 .text          0x00000000000027f4        0x0 /usr/lib/gcc/avr/10.2.0/../../../../avr/lib/avr5/libm.a(fp_cmp.o)
 .text          0x00000000000027f4        0x0 /usr/lib/gcc/avr/10.2.0/../../../../avr/lib/avr5/libm.a(fp_inf.o)
 .text          0x00000000000027f4        0x0 /usr/lib/gcc/avr/10.2.0/../../../../avr/lib/avr5/libm.a(fp_nan.o)
 .text          0x00000000000027f4        0x0 /usr/lib/gcc/avr/10.2.0/../../../../avr/lib/avr5/libm.a(fp_pscA.o)
 .text          0x00000000000027f4        0x0 /usr/lib/gcc/avr/10.2.0/../../../../avr/lib/avr5/libm.a(fp_pscB.o)
 .text          0x00000000000027f4        0x0 /usr/lib/gcc/avr/10.2.0/../../../../avr/lib/avr5/libm.a(fp_round.o)
 .text          0x00000000000027f4        0x0 /usr/lib/gcc/avr/10.2.0/../../../../avr/lib/avr5/libm.a(fp_split3.o)
 .text          0x00000000000027f4        0x0 /usr/lib/gcc/avr/10.2.0/../../../../avr/lib/avr5/libm.a(fp_zero.o)
 .text          0x00000000000027f4        0x0 /usr/lib/gcc/avr/10.2.0/../../../../avr/lib/avr5/libm.a(gesf2.o)
 .text          0x00000000000027f4        0x0 /usr/lib/gcc/avr/10.2.0/../../../../avr/lib/avr5/libm.a(mulsf3.o)
 .text          0x00000000000027f4        0x0 /usr/lib/gcc/avr/10.2.0/../../../../avr/lib/avr5/libm.a(mulsf3x.o)
 .text          0x00000000000027f4        0x0 /usr/lib/gcc/avr/10.2.0/../../../../avr/lib/avr5/libc.a(memset.o)
 .text          0x00000000000027f4        0x0 /usr/lib/gcc/avr/10.2.0/../../../../avr/lib/avr5/libc.a(itoa_ncheck.o)
 .text          0x00000000000027f4        0x0 /usr/lib/gcc/avr/10.2.0/../../../../avr/lib/avr5/libc.a(utoa_ncheck.o)
 .text          0x00000000000027f4        0x0 /usr/lib/gcc/avr/10.2.0/../../../../avr/lib/avr5/libc.a(strrev.o)
 .text          0x00000000000027f4        0x0 /usr/lib/gcc/avr/10.2.0/../../../../avr/lib/avr5/libatmega32.a(eerd_byte.o)
 .text          0x00000000000027f4        0x0 /usr/lib/gcc/avr/10.2.0/../../../../avr/lib/avr5/libatmega32.a(eerd_dword.o)
 .text          0x00000000000027f4        0x0 /usr/lib/gcc/avr/10.2.0/../../../../avr/lib/avr5/libatmega32.a(eeupd_byte.o)
 .text          0x00000000000027f4        0x0 /usr/lib/gcc/avr/10.2.0/../../../../avr/lib/avr5/libatmega32.a(eeupd_dword.o)
 .text          0x00000000000027f4        0x0 /usr/lib/gcc/avr/10.2.0/../../../../avr/lib/avr5/libatmega32.a(eerd_block.o)
                0x00000000000027f4                . = ALIGN (0x2)
 *(.text.*)
 .text.startup  0x00000000000027f4      0x4bc obj/Release/main.o
                0x00000000000027f4                main
 .text.libgcc.mul
                0x0000000000002cb0        0x0 /usr/lib/gcc/avr/10.2.0/avr5/libgcc.a(_divmodhi4.o)
 .text.libgcc.div
                0x0000000000002cb0       0x28 /usr/lib/gcc/avr/10.2.0/avr5/libgcc.a(_divmodhi4.o)
                0x0000000000002cb0                __divmodhi4
                0x0000000000002cb0                _div
 .text.libgcc   0x0000000000002cd8        0x0 /usr/lib/gcc/avr/10.2.0/avr5/libgcc.a(_divmodhi4.o)
 .text.libgcc.prologue
                0x0000000000002cd8        0x0 /usr/lib/gcc/avr/10.2.0/avr5/libgcc.a(_divmodhi4.o)
 .text.libgcc.builtins
                0x0000000000002cd8        0x0 /usr/lib/gcc/avr/10.2.0/avr5/libgcc.a(_divmodhi4.o)
 .text.libgcc.fmul
                0x0000000000002cd8        0x0 /usr/lib/gcc/avr/10.2.0/avr5/libgcc.a(_divmodhi4.o)
 .text.libgcc.fixed
                0x0000000000002cd8        0x0 /usr/lib/gcc/avr/10.2.0/avr5/libgcc.a(_divmodhi4.o)
 .text.libgcc.mul
                0x0000000000002cd8        0x0 /usr/lib/gcc/avr/10.2.0/avr5/libgcc.a(_exit.o)
 .text.libgcc.div
                0x0000000000002cd8        0x0 /usr/lib/gcc/avr/10.2.0/avr5/libgcc.a(_exit.o)
 .text.libgcc   0x0000000000002cd8        0x0 /usr/lib/gcc/avr/10.2.0/avr5/libgcc.a(_exit.o)
 .text.libgcc.prologue
                0x0000000000002cd8        0x0 /usr/lib/gcc/avr/10.2.0/avr5/libgcc.a(_exit.o)
 .text.libgcc.builtins
                0x0000000000002cd8        0x0 /usr/lib/gcc/avr/10.2.0/avr5/libgcc.a(_exit.o)
 .text.libgcc.fmul
                0x0000000000002cd8        0x0 /usr/lib/gcc/avr/10.2.0/avr5/libgcc.a(_exit.o)
 .text.libgcc.fixed
                0x0000000000002cd8        0x0 /usr/lib/gcc/avr/10.2.0/avr5/libgcc.a(_exit.o)
 .text.libgcc.mul
                0x0000000000002cd8        0x0 /usr/lib/gcc/avr/10.2.0/avr5/libgcc.a(_copy_data.o)
 .text.libgcc.div
                0x0000000000002cd8        0x0 /usr/lib/gcc/avr/10.2.0/avr5/libgcc.a(_copy_data.o)
 .text.libgcc   0x0000000000002cd8        0x0 /usr/lib/gcc/avr/10.2.0/avr5/libgcc.a(_copy_data.o)
 .text.libgcc.prologue
                0x0000000000002cd8        0x0 /usr/lib/gcc/avr/10.2.0/avr5/libgcc.a(_copy_data.o)
 .text.libgcc.builtins
                0x0000000000002cd8        0x0 /usr/lib/gcc/avr/10.2.0/avr5/libgcc.a(_copy_data.o)
 .text.libgcc.fmul
                0x0000000000002cd8        0x0 /usr/lib/gcc/avr/10.2.0/avr5/libgcc.a(_copy_data.o)
 .text.libgcc.fixed
                0x0000000000002cd8        0x0 /usr/lib/gcc/avr/10.2.0/avr5/libgcc.a(_copy_data.o)
 .text.libgcc.mul
                0x0000000000002cd8        0x0 /usr/lib/gcc/avr/10.2.0/avr5/libgcc.a(_clear_bss.o)
 .text.libgcc.div
                0x0000000000002cd8        0x0 /usr/lib/gcc/avr/10.2.0/avr5/libgcc.a(_clear_bss.o)
 .text.libgcc   0x0000000000002cd8        0x0 /usr/lib/gcc/avr/10.2.0/avr5/libgcc.a(_clear_bss.o)
 .text.libgcc.prologue
                0x0000000000002cd8        0x0 /usr/lib/gcc/avr/10.2.0/avr5/libgcc.a(_clear_bss.o)
 .text.libgcc.builtins
                0x0000000000002cd8        0x0 /usr/lib/gcc/avr/10.2.0/avr5/libgcc.a(_clear_bss.o)
 .text.libgcc.fmul
                0x0000000000002cd8        0x0 /usr/lib/gcc/avr/10.2.0/avr5/libgcc.a(_clear_bss.o)
 .text.libgcc.fixed
                0x0000000000002cd8        0x0 /usr/lib/gcc/avr/10.2.0/avr5/libgcc.a(_clear_bss.o)
 .text.libgcc.mul
                0x0000000000002cd8        0x0 /usr/lib/gcc/avr/10.2.0/avr5/libgcc.a(_udivmodhi4.o)
 .text.libgcc.div
                0x0000000000002cd8       0x28 /usr/lib/gcc/avr/10.2.0/avr5/libgcc.a(_udivmodhi4.o)
                0x0000000000002cd8                __udivmodhi4
 .text.libgcc   0x0000000000002d00        0x0 /usr/lib/gcc/avr/10.2.0/avr5/libgcc.a(_udivmodhi4.o)
 .text.libgcc.prologue
                0x0000000000002d00        0x0 /usr/lib/gcc/avr/10.2.0/avr5/libgcc.a(_udivmodhi4.o)
 .text.libgcc.builtins
                0x0000000000002d00        0x0 /usr/lib/gcc/avr/10.2.0/avr5/libgcc.a(_udivmodhi4.o)
 .text.libgcc.fmul
                0x0000000000002d00        0x0 /usr/lib/gcc/avr/10.2.0/avr5/libgcc.a(_udivmodhi4.o)
 .text.libgcc.fixed
                0x0000000000002d00        0x0 /usr/lib/gcc/avr/10.2.0/avr5/libgcc.a(_udivmodhi4.o)
 .text.avr-libc.fplib
                0x0000000000002d00        0xe /usr/lib/gcc/avr/10.2.0/../../../../avr/lib/avr5/libm.a(addsf3.o)
                0x0000000000002d00                __subsf3
                0x0000000000002d02                __addsf3
 .text.avr-libc.fplib
                0x0000000000002d0e       0xcc /usr/lib/gcc/avr/10.2.0/../../../../avr/lib/avr5/libm.a(addsf3x.o)
                0x0000000000002d30                __addsf3x
 .text.avr-libc.fplib
                0x0000000000002dda        0xa /usr/lib/gcc/avr/10.2.0/../../../../avr/lib/avr5/libm.a(cmpsf2.o)
                0x0000000000002dda                __lesf2
                0x0000000000002dda                __nesf2
                0x0000000000002dda                __eqsf2
                0x0000000000002dda                __cmpsf2
                0x0000000000002dda                __ltsf2
 .text.avr-libc.fplib
                0x0000000000002de4        0x8 /usr/lib/gcc/avr/10.2.0/../../../../avr/lib/avr5/libm.a(divsf3.o)
                0x0000000000002de4                __divsf3
 .text.avr-libc.fplib
                0x0000000000002dec       0xdc /usr/lib/gcc/avr/10.2.0/../../../../avr/lib/avr5/libm.a(divsf3x.o)
                0x0000000000002e0c                __divsf3x
                0x0000000000002e12                __divsf3_pse
 .text.avr-libc.fplib
                0x0000000000002ec8        0xe /usr/lib/gcc/avr/10.2.0/../../../../avr/lib/avr5/libm.a(fixsfsi.o)
                0x0000000000002ec8                __fixsfsi
 .text.avr-libc.fplib
                0x0000000000002ed6       0x5e /usr/lib/gcc/avr/10.2.0/../../../../avr/lib/avr5/libm.a(fixunssfsi.o)
                0x0000000000002ed6                __fixunssfsi
 .text.avr-libc.fplib
                0x0000000000002f34       0x7a /usr/lib/gcc/avr/10.2.0/../../../../avr/lib/avr5/libm.a(floatsisf.o)
                0x0000000000002f34                __floatunsisf
                0x0000000000002f38                __floatsisf
 .text.avr-libc.fplib
                0x0000000000002fae       0x48 /usr/lib/gcc/avr/10.2.0/../../../../avr/lib/avr5/libm.a(fp_cmp.o)
                0x0000000000002fae                __fp_cmp
 .text.avr-libc.fplib
                0x0000000000002ff6        0xc /usr/lib/gcc/avr/10.2.0/../../../../avr/lib/avr5/libm.a(fp_inf.o)
                0x0000000000002ff6                __fp_inf
 .text.avr-libc.fplib
                0x0000000000003002        0x6 /usr/lib/gcc/avr/10.2.0/../../../../avr/lib/avr5/libm.a(fp_nan.o)
                0x0000000000003002                __fp_nan
 .text.avr-libc.fplib
                0x0000000000003008        0xe /usr/lib/gcc/avr/10.2.0/../../../../avr/lib/avr5/libm.a(fp_pscA.o)
                0x0000000000003008                __fp_pscA
 .text.avr-libc.fplib
                0x0000000000003016        0xe /usr/lib/gcc/avr/10.2.0/../../../../avr/lib/avr5/libm.a(fp_pscB.o)
                0x0000000000003016                __fp_pscB
 .text.avr-libc.fplib
                0x0000000000003024       0x22 /usr/lib/gcc/avr/10.2.0/../../../../avr/lib/avr5/libm.a(fp_round.o)
                0x0000000000003024                __fp_round
 .text.avr-libc.fplib
                0x0000000000003046       0x44 /usr/lib/gcc/avr/10.2.0/../../../../avr/lib/avr5/libm.a(fp_split3.o)
                0x0000000000003046                __fp_split3
                0x0000000000003056                __fp_splitA
 .text.avr-libc.fplib
                0x000000000000308a        0xe /usr/lib/gcc/avr/10.2.0/../../../../avr/lib/avr5/libm.a(fp_zero.o)
                0x000000000000308a                __fp_zero
                0x000000000000308c                __fp_szero
 .text.avr-libc.fplib
                0x0000000000003098        0xa /usr/lib/gcc/avr/10.2.0/../../../../avr/lib/avr5/libm.a(gesf2.o)
                0x0000000000003098                __gtsf2
                0x0000000000003098                __gesf2
 .text.avr-libc.fplib
                0x00000000000030a2        0x8 /usr/lib/gcc/avr/10.2.0/../../../../avr/lib/avr5/libm.a(mulsf3.o)
                0x00000000000030a2                __mulsf3
 .text.avr-libc.fplib
                0x00000000000030aa       0xd2 /usr/lib/gcc/avr/10.2.0/../../../../avr/lib/avr5/libm.a(mulsf3x.o)
                0x00000000000030c8                __mulsf3x
                0x00000000000030ce                __mulsf3_pse
 .text.avr-libc
                0x000000000000317c        0xe /usr/lib/gcc/avr/10.2.0/../../../../avr/lib/avr5/libc.a(memset.o)
                0x000000000000317c                memset
 .text.avr-libc
                0x000000000000318a       0x16 /usr/lib/gcc/avr/10.2.0/../../../../avr/lib/avr5/libc.a(itoa_ncheck.o)
                0x000000000000318a                __itoa_ncheck
 .text.avr-libc
                0x00000000000031a0       0x34 /usr/lib/gcc/avr/10.2.0/../../../../avr/lib/avr5/libc.a(utoa_ncheck.o)
                0x00000000000031a0                __utoa_ncheck
                0x00000000000031a2                __utoa_common
 .text.avr-libc
                0x00000000000031d4       0x20 /usr/lib/gcc/avr/10.2.0/../../../../avr/lib/avr5/libc.a(strrev.o)
                0x00000000000031d4                strrev
 .text.avr-libc
                0x00000000000031f4       0x10 /usr/lib/gcc/avr/10.2.0/../../../../avr/lib/avr5/libatmega32.a(eerd_byte.o)
                0x00000000000031f4                eeprom_read_byte
 .text.avr-libc
                0x0000000000003204        0xc /usr/lib/gcc/avr/10.2.0/../../../../avr/lib/avr5/libatmega32.a(eerd_dword.o)
                0x0000000000003204                eeprom_read_dword
                0x0000000000003204                eeprom_read_float
 .text.avr-libc
                0x0000000000003210       0x22 /usr/lib/gcc/avr/10.2.0/../../../../avr/lib/avr5/libatmega32.a(eeupd_byte.o)
                0x0000000000003210                eeprom_update_byte
                0x0000000000003212                eeprom_update_r18
 .text.avr-libc
                0x0000000000003232       0x18 /usr/lib/gcc/avr/10.2.0/../../../../avr/lib/avr5/libatmega32.a(eeupd_dword.o)
                0x0000000000003232                eeprom_update_dword
                0x0000000000003232                eeprom_update_float
 .text.avr-libc
                0x000000000000324a       0x20 /usr/lib/gcc/avr/10.2.0/../../../../avr/lib/avr5/libatmega32.a(eerd_block.o)
                0x000000000000324a                eeprom_read_block
                0x000000000000324e                eeprom_read_blraw
                0x000000000000326a                . = ALIGN (0x2)
 *(.fini9)
 .fini9         0x000000000000326a        0x0 /usr/lib/gcc/avr/10.2.0/avr5/libgcc.a(_exit.o)
                0x000000000000326a                exit
                0x000000000000326a                _exit
 *(.fini9)
 *(.fini8)
 *(.fini8)
 *(.fini7)
 *(.fini7)
 *(.fini6)
 *(.fini6)
 *(.fini5)
 *(.fini5)
 *(.fini4)
 *(.fini4)
 *(.fini3)
 *(.fini3)
 *(.fini2)
 *(.fini2)
 *(.fini1)
 *(.fini1)
 *(.fini0)
 .fini0         0x000000000000326a        0x4 /usr/lib/gcc/avr/10.2.0/avr5/libgcc.a(_exit.o)
 *(.fini0)
 *(.hightext)
 *(.hightext*)
 *(.progmemx.*)
                0x000000000000326e                . = ALIGN (0x2)
 *(.jumptables)
 *(.jumptables*)
                0x000000000000326e                _etext = .

.data           0x0000000000800060       0x5c load address 0x000000000000326e
                0x0000000000800060                PROVIDE (__data_start = .)
 *(.data)
 .data          0x0000000000800060        0x0 /usr/lib/gcc/avr/10.2.0/../../../../avr/lib/avr5/crtatmega32.o
 .data          0x0000000000800060        0x8 obj/Release/autoMode.o
                0x0000000000800060                nTicks_measured
                0x0000000000800064                Qmhl_measured
 .data          0x0000000000800068        0x0 obj/Release/configMode.o
 .data          0x0000000000800068       0x14 obj/Release/display.o
                0x0000000000800068                disp7s_mux
 .data          0x000000000080007c        0x0 obj/Release/error.o
 .data          0x000000000080007c        0x0 obj/Release/flushAllMode1.o
 .data          0x000000000080007c        0x0 obj/Release/flushAtNozzle.o
 .data          0x000000000080007c        0x0 obj/Release/fuse.o
 .data          0x000000000080007c        0x0 obj/Release/ikb.o
 .data          0x000000000080007c        0x0 obj/Release/inputs.o
 .data          0x000000000080007c        0x2 obj/Release/main.o
 .data          0x000000000080007e       0x11 obj/Release/mpap.o
                0x000000000080007f                mpap_step
 .data          0x000000000080008f        0x0 obj/Release/myeeprom.o
 .data          0x000000000080008f        0x4 obj/Release/nozzle.o
                0x000000000080008f                NOZZLE_QTY_DIFF
 .data          0x0000000000800093        0x0 obj/Release/pulsonic.o
 .data          0x0000000000800093        0x0 obj/Release/pump.o
 .data          0x0000000000800093        0x0 obj/Release/ustepping.o
 .data          0x0000000000800093        0x8 obj/Release/visMode.o
                0x0000000000800093                visMode
 .data          0x000000000080009b        0x0 /usr/lib/gcc/avr/10.2.0/avr5/libgcc.a(_divmodhi4.o)
 .data          0x000000000080009b        0x0 /usr/lib/gcc/avr/10.2.0/avr5/libgcc.a(_exit.o)
 .data          0x000000000080009b        0x0 /usr/lib/gcc/avr/10.2.0/avr5/libgcc.a(_copy_data.o)
 .data          0x000000000080009b        0x0 /usr/lib/gcc/avr/10.2.0/avr5/libgcc.a(_clear_bss.o)
 .data          0x000000000080009b        0x0 /usr/lib/gcc/avr/10.2.0/avr5/libgcc.a(_udivmodhi4.o)
 .data          0x000000000080009b        0x0 /usr/lib/gcc/avr/10.2.0/../../../../avr/lib/avr5/libm.a(addsf3.o)
 .data          0x000000000080009b        0x0 /usr/lib/gcc/avr/10.2.0/../../../../avr/lib/avr5/libm.a(addsf3x.o)
 .data          0x000000000080009b        0x0 /usr/lib/gcc/avr/10.2.0/../../../../avr/lib/avr5/libm.a(cmpsf2.o)
 .data          0x000000000080009b        0x0 /usr/lib/gcc/avr/10.2.0/../../../../avr/lib/avr5/libm.a(divsf3.o)
 .data          0x000000000080009b        0x0 /usr/lib/gcc/avr/10.2.0/../../../../avr/lib/avr5/libm.a(divsf3x.o)
 .data          0x000000000080009b        0x0 /usr/lib/gcc/avr/10.2.0/../../../../avr/lib/avr5/libm.a(fixsfsi.o)
 .data          0x000000000080009b        0x0 /usr/lib/gcc/avr/10.2.0/../../../../avr/lib/avr5/libm.a(fixunssfsi.o)
 .data          0x000000000080009b        0x0 /usr/lib/gcc/avr/10.2.0/../../../../avr/lib/avr5/libm.a(floatsisf.o)
 .data          0x000000000080009b        0x0 /usr/lib/gcc/avr/10.2.0/../../../../avr/lib/avr5/libm.a(fp_cmp.o)
 .data          0x000000000080009b        0x0 /usr/lib/gcc/avr/10.2.0/../../../../avr/lib/avr5/libm.a(fp_inf.o)
 .data          0x000000000080009b        0x0 /usr/lib/gcc/avr/10.2.0/../../../../avr/lib/avr5/libm.a(fp_nan.o)
 .data          0x000000000080009b        0x0 /usr/lib/gcc/avr/10.2.0/../../../../avr/lib/avr5/libm.a(fp_pscA.o)
 .data          0x000000000080009b        0x0 /usr/lib/gcc/avr/10.2.0/../../../../avr/lib/avr5/libm.a(fp_pscB.o)
 .data          0x000000000080009b        0x0 /usr/lib/gcc/avr/10.2.0/../../../../avr/lib/avr5/libm.a(fp_round.o)
 .data          0x000000000080009b        0x0 /usr/lib/gcc/avr/10.2.0/../../../../avr/lib/avr5/libm.a(fp_split3.o)
 .data          0x000000000080009b        0x0 /usr/lib/gcc/avr/10.2.0/../../../../avr/lib/avr5/libm.a(fp_zero.o)
 .data          0x000000000080009b        0x0 /usr/lib/gcc/avr/10.2.0/../../../../avr/lib/avr5/libm.a(gesf2.o)
 .data          0x000000000080009b        0x0 /usr/lib/gcc/avr/10.2.0/../../../../avr/lib/avr5/libm.a(mulsf3.o)
 .data          0x000000000080009b        0x0 /usr/lib/gcc/avr/10.2.0/../../../../avr/lib/avr5/libm.a(mulsf3x.o)
 .data          0x000000000080009b        0x0 /usr/lib/gcc/avr/10.2.0/../../../../avr/lib/avr5/libc.a(memset.o)
 .data          0x000000000080009b        0x0 /usr/lib/gcc/avr/10.2.0/../../../../avr/lib/avr5/libc.a(itoa_ncheck.o)
 .data          0x000000000080009b        0x0 /usr/lib/gcc/avr/10.2.0/../../../../avr/lib/avr5/libc.a(utoa_ncheck.o)
 .data          0x000000000080009b        0x0 /usr/lib/gcc/avr/10.2.0/../../../../avr/lib/avr5/libc.a(strrev.o)
 .data          0x000000000080009b        0x0 /usr/lib/gcc/avr/10.2.0/../../../../avr/lib/avr5/libatmega32.a(eerd_byte.o)
 .data          0x000000000080009b        0x0 /usr/lib/gcc/avr/10.2.0/../../../../avr/lib/avr5/libatmega32.a(eerd_dword.o)
 .data          0x000000000080009b        0x0 /usr/lib/gcc/avr/10.2.0/../../../../avr/lib/avr5/libatmega32.a(eeupd_byte.o)
 .data          0x000000000080009b        0x0 /usr/lib/gcc/avr/10.2.0/../../../../avr/lib/avr5/libatmega32.a(eeupd_dword.o)
 .data          0x000000000080009b        0x0 /usr/lib/gcc/avr/10.2.0/../../../../avr/lib/avr5/libatmega32.a(eerd_block.o)
 *(.data*)
 *(.gnu.linkonce.d*)
 *(.rodata)
 .rodata        0x000000000080009b        0xc obj/Release/display.o
                0x000000000080009b                DISP7S_CHARS
                0x000000000080009d                DISP7S_NUMS
 .rodata        0x00000000008000a7        0x6 obj/Release/ikb.o
                0x00000000008000a7                propEmpty
 .rodata        0x00000000008000ad        0x4 obj/Release/pulsonic.o
                0x00000000008000ad                OIL_VISCOSITY
 .rodata        0x00000000008000b1        0xa obj/Release/ustepping.o
                0x00000000008000b1                ustep_lockup
 *(.rodata*)
 *(.gnu.linkonce.r*)
                0x00000000008000bc                . = ALIGN (0x2)
 *fill*         0x00000000008000bb        0x1 
                0x00000000008000bc                _edata = .
                0x00000000008000bc                PROVIDE (__data_end = .)

.bss            0x00000000008000bc      0x236
                0x00000000008000bc                PROVIDE (__bss_start = .)
 *(.bss)
 .bss           0x00000000008000bc        0x0 /usr/lib/gcc/avr/10.2.0/../../../../avr/lib/avr5/crtatmega32.o
 .bss           0x00000000008000bc        0x6 obj/Release/autoMode.o
 .bss           0x00000000008000c2        0x3 obj/Release/configMode.o
 .bss           0x00000000008000c5        0x5 obj/Release/display.o
 .bss           0x00000000008000ca        0x0 obj/Release/error.o
 .bss           0x00000000008000ca        0x2 obj/Release/flushAllMode1.o
 .bss           0x00000000008000cc        0x4 obj/Release/flushAtNozzle.o
                0x00000000008000cc                counterTicks_debug
 .bss           0x00000000008000d0        0x0 obj/Release/fuse.o
 .bss           0x00000000008000d0       0x55 obj/Release/ikb.o
                0x00000000008000d0                group_x
 .bss           0x0000000000800125        0x8 obj/Release/inputs.o
 .bss           0x000000000080012d       0x18 obj/Release/main.o
                0x000000000080012d                check_oilLevel_data
                0x000000000080012f                chek_homeSensor_data
                0x0000000000800131                startSig_last
                0x0000000000800132                disp7s_bk
                0x0000000000800137                disp_owner
                0x0000000000800138                funcMach
                0x0000000000800139                smain
 .bss           0x0000000000800145       0x11 obj/Release/mpap.o
                0x0000000000800145                homming
                0x0000000000800146                mpap
 .bss           0x0000000000800156        0x0 obj/Release/myeeprom.o
 .bss           0x0000000000800156        0x1 obj/Release/nozzle.o
 .bss           0x0000000000800157      0x196 obj/Release/pulsonic.o
                0x0000000000800157                pulsonic
 .bss           0x00000000008002ed        0x5 obj/Release/pump.o
 .bss           0x00000000008002f2        0x0 obj/Release/ustepping.o
 .bss           0x00000000008002f2        0x0 obj/Release/visMode.o
 .bss           0x00000000008002f2        0x0 /usr/lib/gcc/avr/10.2.0/avr5/libgcc.a(_divmodhi4.o)
 .bss           0x00000000008002f2        0x0 /usr/lib/gcc/avr/10.2.0/avr5/libgcc.a(_exit.o)
 .bss           0x00000000008002f2        0x0 /usr/lib/gcc/avr/10.2.0/avr5/libgcc.a(_copy_data.o)
 .bss           0x00000000008002f2        0x0 /usr/lib/gcc/avr/10.2.0/avr5/libgcc.a(_clear_bss.o)
 .bss           0x00000000008002f2        0x0 /usr/lib/gcc/avr/10.2.0/avr5/libgcc.a(_udivmodhi4.o)
 .bss           0x00000000008002f2        0x0 /usr/lib/gcc/avr/10.2.0/../../../../avr/lib/avr5/libm.a(addsf3.o)
 .bss           0x00000000008002f2        0x0 /usr/lib/gcc/avr/10.2.0/../../../../avr/lib/avr5/libm.a(addsf3x.o)
 .bss           0x00000000008002f2        0x0 /usr/lib/gcc/avr/10.2.0/../../../../avr/lib/avr5/libm.a(cmpsf2.o)
 .bss           0x00000000008002f2        0x0 /usr/lib/gcc/avr/10.2.0/../../../../avr/lib/avr5/libm.a(divsf3.o)
 .bss           0x00000000008002f2        0x0 /usr/lib/gcc/avr/10.2.0/../../../../avr/lib/avr5/libm.a(divsf3x.o)
 .bss           0x00000000008002f2        0x0 /usr/lib/gcc/avr/10.2.0/../../../../avr/lib/avr5/libm.a(fixsfsi.o)
 .bss           0x00000000008002f2        0x0 /usr/lib/gcc/avr/10.2.0/../../../../avr/lib/avr5/libm.a(fixunssfsi.o)
 .bss           0x00000000008002f2        0x0 /usr/lib/gcc/avr/10.2.0/../../../../avr/lib/avr5/libm.a(floatsisf.o)
 .bss           0x00000000008002f2        0x0 /usr/lib/gcc/avr/10.2.0/../../../../avr/lib/avr5/libm.a(fp_cmp.o)
 .bss           0x00000000008002f2        0x0 /usr/lib/gcc/avr/10.2.0/../../../../avr/lib/avr5/libm.a(fp_inf.o)
 .bss           0x00000000008002f2        0x0 /usr/lib/gcc/avr/10.2.0/../../../../avr/lib/avr5/libm.a(fp_nan.o)
 .bss           0x00000000008002f2        0x0 /usr/lib/gcc/avr/10.2.0/../../../../avr/lib/avr5/libm.a(fp_pscA.o)
 .bss           0x00000000008002f2        0x0 /usr/lib/gcc/avr/10.2.0/../../../../avr/lib/avr5/libm.a(fp_pscB.o)
 .bss           0x00000000008002f2        0x0 /usr/lib/gcc/avr/10.2.0/../../../../avr/lib/avr5/libm.a(fp_round.o)
 .bss           0x00000000008002f2        0x0 /usr/lib/gcc/avr/10.2.0/../../../../avr/lib/avr5/libm.a(fp_split3.o)
 .bss           0x00000000008002f2        0x0 /usr/lib/gcc/avr/10.2.0/../../../../avr/lib/avr5/libm.a(fp_zero.o)
 .bss           0x00000000008002f2        0x0 /usr/lib/gcc/avr/10.2.0/../../../../avr/lib/avr5/libm.a(gesf2.o)
 .bss           0x00000000008002f2        0x0 /usr/lib/gcc/avr/10.2.0/../../../../avr/lib/avr5/libm.a(mulsf3.o)
 .bss           0x00000000008002f2        0x0 /usr/lib/gcc/avr/10.2.0/../../../../avr/lib/avr5/libm.a(mulsf3x.o)
 .bss           0x00000000008002f2        0x0 /usr/lib/gcc/avr/10.2.0/../../../../avr/lib/avr5/libc.a(memset.o)
 .bss           0x00000000008002f2        0x0 /usr/lib/gcc/avr/10.2.0/../../../../avr/lib/avr5/libc.a(itoa_ncheck.o)
 .bss           0x00000000008002f2        0x0 /usr/lib/gcc/avr/10.2.0/../../../../avr/lib/avr5/libc.a(utoa_ncheck.o)
 .bss           0x00000000008002f2        0x0 /usr/lib/gcc/avr/10.2.0/../../../../avr/lib/avr5/libc.a(strrev.o)
 .bss           0x00000000008002f2        0x0 /usr/lib/gcc/avr/10.2.0/../../../../avr/lib/avr5/libatmega32.a(eerd_byte.o)
 .bss           0x00000000008002f2        0x0 /usr/lib/gcc/avr/10.2.0/../../../../avr/lib/avr5/libatmega32.a(eerd_dword.o)
 .bss           0x00000000008002f2        0x0 /usr/lib/gcc/avr/10.2.0/../../../../avr/lib/avr5/libatmega32.a(eeupd_byte.o)
 .bss           0x00000000008002f2        0x0 /usr/lib/gcc/avr/10.2.0/../../../../avr/lib/avr5/libatmega32.a(eeupd_dword.o)
 .bss           0x00000000008002f2        0x0 /usr/lib/gcc/avr/10.2.0/../../../../avr/lib/avr5/libatmega32.a(eerd_block.o)
 *(.bss*)
 *(COMMON)
                0x00000000008002f2                PROVIDE (__bss_end = .)
                0x000000000000326e                __data_load_start = LOADADDR (.data)
                0x00000000000032ca                __data_load_end = (__data_load_start + SIZEOF (.data))

.noinit         0x00000000008002f2        0x0
                [!provide]                        PROVIDE (__noinit_start = .)
 *(.noinit*)
                [!provide]                        PROVIDE (__noinit_end = .)
                0x00000000008002f2                _end = .
                [!provide]                        PROVIDE (__heap_start = .)

.eeprom         0x0000000000810000       0x49
 *(.eeprom*)
 .eeprom        0x0000000000810000       0x49 obj/Release/myeeprom.o
                0x0000000000810000                oilViscosityIdx_EEP
                0x0000000000810001                Q_mlh_EEP
                0x0000000000810049                __eeprom_end = .

.fuse           0x0000000000820000        0x2
 *(.fuse)
 .fuse          0x0000000000820000        0x2 obj/Release/fuse.o
                0x0000000000820000                __fuse
 *(.lfuse)
 *(.hfuse)
 *(.efuse)

.lock
 *(.lock*)

.signature
 *(.signature*)

.stab
 *(.stab)

.stabstr
 *(.stabstr)

.stab.excl
 *(.stab.excl)

.stab.exclstr
 *(.stab.exclstr)

.stab.index
 *(.stab.index)

.stab.indexstr
 *(.stab.indexstr)

.comment        0x0000000000000000       0x12
 *(.comment)
 .comment       0x0000000000000000       0x12 obj/Release/autoMode.o
                                         0x13 (size before relaxing)
 .comment       0x0000000000000012       0x13 obj/Release/configMode.o
 .comment       0x0000000000000012       0x13 obj/Release/display.o
 .comment       0x0000000000000012       0x13 obj/Release/error.o
 .comment       0x0000000000000012       0x13 obj/Release/flushAllMode1.o
 .comment       0x0000000000000012       0x13 obj/Release/flushAtNozzle.o
 .comment       0x0000000000000012       0x13 obj/Release/fuse.o
 .comment       0x0000000000000012       0x13 obj/Release/ikb.o
 .comment       0x0000000000000012       0x13 obj/Release/inputs.o
 .comment       0x0000000000000012       0x13 obj/Release/main.o
 .comment       0x0000000000000012       0x13 obj/Release/mpap.o
 .comment       0x0000000000000012       0x13 obj/Release/myeeprom.o
 .comment       0x0000000000000012       0x13 obj/Release/nozzle.o
 .comment       0x0000000000000012       0x13 obj/Release/pulsonic.o
 .comment       0x0000000000000012       0x13 obj/Release/pump.o
 .comment       0x0000000000000012       0x13 obj/Release/ustepping.o
 .comment       0x0000000000000012       0x13 obj/Release/visMode.o

.note.gnu.avr.deviceinfo
                0x0000000000000000       0x3c
 .note.gnu.avr.deviceinfo
                0x0000000000000000       0x3c /usr/lib/gcc/avr/10.2.0/../../../../avr/lib/avr5/crtatmega32.o

.note.gnu.build-id
 *(.note.gnu.build-id)

.debug
 *(.debug)

.line
 *(.line)

.debug_srcinfo
 *(.debug_srcinfo)

.debug_sfnames
 *(.debug_sfnames)

.debug_aranges
 *(.debug_aranges)

.debug_pubnames
 *(.debug_pubnames)

.debug_info     0x0000000000000000      0x4e6
 *(.debug_info .gnu.linkonce.wi.*)
 .debug_info    0x0000000000000000      0x4e6 /usr/lib/gcc/avr/10.2.0/../../../../avr/lib/avr5/crtatmega32.o

.debug_abbrev   0x0000000000000000      0x4a3
 *(.debug_abbrev)
 .debug_abbrev  0x0000000000000000      0x4a3 /usr/lib/gcc/avr/10.2.0/../../../../avr/lib/avr5/crtatmega32.o

.debug_line     0x0000000000000000       0x1d
 *(.debug_line .debug_line.* .debug_line_end)
 .debug_line    0x0000000000000000       0x1d /usr/lib/gcc/avr/10.2.0/../../../../avr/lib/avr5/crtatmega32.o

.debug_frame
 *(.debug_frame)

.debug_str      0x0000000000000000      0x196
 *(.debug_str)
 .debug_str     0x0000000000000000      0x196 /usr/lib/gcc/avr/10.2.0/../../../../avr/lib/avr5/crtatmega32.o

.debug_loc
 *(.debug_loc)

.debug_macinfo
 *(.debug_macinfo)

.debug_weaknames
 *(.debug_weaknames)

.debug_funcnames
 *(.debug_funcnames)

.debug_typenames
 *(.debug_typenames)

.debug_varnames
 *(.debug_varnames)

.debug_pubtypes
 *(.debug_pubtypes)

.debug_ranges
 *(.debug_ranges)

.debug_macro
 *(.debug_macro)

.debug_addr
 *(.debug_addr)
OUTPUT(bin/Release/atmega32Pulsonic.elf elf32-avr)
LOAD linker stubs

Cross Reference Table

Symbol                                            File
DISP7S_CHARS                                      obj/Release/display.o
DISP7S_NUMS                                       obj/Release/display.o
NOZZLE_QTY_DIFF                                   obj/Release/nozzle.o
                                                  obj/Release/configMode.o
OIL_VISCOSITY                                     obj/Release/pulsonic.o
                                                  obj/Release/configMode.o
Q_mlh_EEP                                         obj/Release/myeeprom.o
                                                  obj/Release/pulsonic.o
                                                  obj/Release/configMode.o
Qmhl_measured                                     obj/Release/autoMode.o
__addsf3                                          /usr/lib/gcc/avr/10.2.0/../../../../avr/lib/avr5/libm.a(addsf3.o)
                                                  obj/Release/pulsonic.o
                                                  obj/Release/configMode.o
                                                  obj/Release/autoMode.o
__addsf3x                                         /usr/lib/gcc/avr/10.2.0/../../../../avr/lib/avr5/libm.a(addsf3x.o)
                                                  /usr/lib/gcc/avr/10.2.0/../../../../avr/lib/avr5/libm.a(addsf3.o)
__bad_interrupt                                   /usr/lib/gcc/avr/10.2.0/../../../../avr/lib/avr5/crtatmega32.o
__bss_end                                         /usr/lib/gcc/avr/10.2.0/avr5/libgcc.a(_clear_bss.o)
__bss_start                                       /usr/lib/gcc/avr/10.2.0/avr5/libgcc.a(_clear_bss.o)
__cmpsf2                                          /usr/lib/gcc/avr/10.2.0/../../../../avr/lib/avr5/libm.a(cmpsf2.o)
__data_end                                        /usr/lib/gcc/avr/10.2.0/avr5/libgcc.a(_copy_data.o)
__data_load_start                                 /usr/lib/gcc/avr/10.2.0/avr5/libgcc.a(_copy_data.o)
__data_start                                      /usr/lib/gcc/avr/10.2.0/avr5/libgcc.a(_copy_data.o)
__divmodhi4                                       /usr/lib/gcc/avr/10.2.0/avr5/libgcc.a(_divmodhi4.o)
                                                  obj/Release/nozzle.o
                                                  obj/Release/flushAllMode1.o
__divsf3                                          /usr/lib/gcc/avr/10.2.0/../../../../avr/lib/avr5/libm.a(divsf3.o)
                                                  obj/Release/autoMode.o
__divsf3_pse                                      /usr/lib/gcc/avr/10.2.0/../../../../avr/lib/avr5/libm.a(divsf3x.o)
__divsf3x                                         /usr/lib/gcc/avr/10.2.0/../../../../avr/lib/avr5/libm.a(divsf3x.o)
                                                  /usr/lib/gcc/avr/10.2.0/../../../../avr/lib/avr5/libm.a(divsf3.o)
__do_clear_bss                                    /usr/lib/gcc/avr/10.2.0/avr5/libgcc.a(_clear_bss.o)
                                                  obj/Release/pump.o
                                                  obj/Release/pulsonic.o
                                                  obj/Release/nozzle.o
                                                  obj/Release/mpap.o
                                                  obj/Release/main.o
                                                  obj/Release/inputs.o
                                                  obj/Release/ikb.o
                                                  obj/Release/flushAtNozzle.o
                                                  obj/Release/flushAllMode1.o
                                                  obj/Release/display.o
                                                  obj/Release/configMode.o
                                                  obj/Release/autoMode.o
__do_copy_data                                    /usr/lib/gcc/avr/10.2.0/avr5/libgcc.a(_copy_data.o)
                                                  obj/Release/visMode.o
                                                  obj/Release/ustepping.o
                                                  obj/Release/pulsonic.o
                                                  obj/Release/nozzle.o
                                                  obj/Release/mpap.o
                                                  obj/Release/main.o
                                                  obj/Release/ikb.o
                                                  obj/Release/display.o
                                                  obj/Release/autoMode.o
__eqsf2                                           /usr/lib/gcc/avr/10.2.0/../../../../avr/lib/avr5/libm.a(cmpsf2.o)
                                                  obj/Release/visMode.o
                                                  obj/Release/configMode.o
__fixsfsi                                         /usr/lib/gcc/avr/10.2.0/../../../../avr/lib/avr5/libm.a(fixsfsi.o)
                                                  obj/Release/display.o
                                                  obj/Release/autoMode.o
__fixunssfsi                                      /usr/lib/gcc/avr/10.2.0/../../../../avr/lib/avr5/libm.a(fixunssfsi.o)
                                                  /usr/lib/gcc/avr/10.2.0/../../../../avr/lib/avr5/libm.a(fixsfsi.o)
                                                  obj/Release/autoMode.o
__floatsisf                                       /usr/lib/gcc/avr/10.2.0/../../../../avr/lib/avr5/libm.a(floatsisf.o)
__floatunsisf                                     /usr/lib/gcc/avr/10.2.0/../../../../avr/lib/avr5/libm.a(floatsisf.o)
                                                  obj/Release/autoMode.o
__fp_cmp                                          /usr/lib/gcc/avr/10.2.0/../../../../avr/lib/avr5/libm.a(fp_cmp.o)
                                                  /usr/lib/gcc/avr/10.2.0/../../../../avr/lib/avr5/libm.a(gesf2.o)
                                                  /usr/lib/gcc/avr/10.2.0/../../../../avr/lib/avr5/libm.a(cmpsf2.o)
__fp_inf                                          /usr/lib/gcc/avr/10.2.0/../../../../avr/lib/avr5/libm.a(fp_inf.o)
                                                  /usr/lib/gcc/avr/10.2.0/../../../../avr/lib/avr5/libm.a(mulsf3x.o)
                                                  /usr/lib/gcc/avr/10.2.0/../../../../avr/lib/avr5/libm.a(divsf3x.o)
                                                  /usr/lib/gcc/avr/10.2.0/../../../../avr/lib/avr5/libm.a(addsf3x.o)
__fp_nan                                          /usr/lib/gcc/avr/10.2.0/../../../../avr/lib/avr5/libm.a(fp_nan.o)
                                                  /usr/lib/gcc/avr/10.2.0/../../../../avr/lib/avr5/libm.a(mulsf3x.o)
                                                  /usr/lib/gcc/avr/10.2.0/../../../../avr/lib/avr5/libm.a(divsf3x.o)
                                                  /usr/lib/gcc/avr/10.2.0/../../../../avr/lib/avr5/libm.a(addsf3x.o)
__fp_pscA                                         /usr/lib/gcc/avr/10.2.0/../../../../avr/lib/avr5/libm.a(fp_pscA.o)
                                                  /usr/lib/gcc/avr/10.2.0/../../../../avr/lib/avr5/libm.a(mulsf3x.o)
                                                  /usr/lib/gcc/avr/10.2.0/../../../../avr/lib/avr5/libm.a(divsf3x.o)
                                                  /usr/lib/gcc/avr/10.2.0/../../../../avr/lib/avr5/libm.a(addsf3x.o)
__fp_pscB                                         /usr/lib/gcc/avr/10.2.0/../../../../avr/lib/avr5/libm.a(fp_pscB.o)
                                                  /usr/lib/gcc/avr/10.2.0/../../../../avr/lib/avr5/libm.a(mulsf3x.o)
                                                  /usr/lib/gcc/avr/10.2.0/../../../../avr/lib/avr5/libm.a(divsf3x.o)
                                                  /usr/lib/gcc/avr/10.2.0/../../../../avr/lib/avr5/libm.a(addsf3x.o)
__fp_round                                        /usr/lib/gcc/avr/10.2.0/../../../../avr/lib/avr5/libm.a(fp_round.o)
                                                  /usr/lib/gcc/avr/10.2.0/../../../../avr/lib/avr5/libm.a(mulsf3.o)
                                                  /usr/lib/gcc/avr/10.2.0/../../../../avr/lib/avr5/libm.a(divsf3.o)
                                                  /usr/lib/gcc/avr/10.2.0/../../../../avr/lib/avr5/libm.a(addsf3.o)
__fp_split3                                       /usr/lib/gcc/avr/10.2.0/../../../../avr/lib/avr5/libm.a(fp_split3.o)
                                                  /usr/lib/gcc/avr/10.2.0/../../../../avr/lib/avr5/libm.a(mulsf3x.o)
                                                  /usr/lib/gcc/avr/10.2.0/../../../../avr/lib/avr5/libm.a(divsf3x.o)
                                                  /usr/lib/gcc/avr/10.2.0/../../../../avr/lib/avr5/libm.a(addsf3x.o)
__fp_splitA                                       /usr/lib/gcc/avr/10.2.0/../../../../avr/lib/avr5/libm.a(fp_split3.o)
                                                  /usr/lib/gcc/avr/10.2.0/../../../../avr/lib/avr5/libm.a(fixunssfsi.o)
__fp_szero                                        /usr/lib/gcc/avr/10.2.0/../../../../avr/lib/avr5/libm.a(fp_zero.o)
                                                  /usr/lib/gcc/avr/10.2.0/../../../../avr/lib/avr5/libm.a(mulsf3x.o)
                                                  /usr/lib/gcc/avr/10.2.0/../../../../avr/lib/avr5/libm.a(fixsfsi.o)
                                                  /usr/lib/gcc/avr/10.2.0/../../../../avr/lib/avr5/libm.a(divsf3x.o)
__fp_zero                                         /usr/lib/gcc/avr/10.2.0/../../../../avr/lib/avr5/libm.a(fp_zero.o)
                                                  /usr/lib/gcc/avr/10.2.0/../../../../avr/lib/avr5/libm.a(fixunssfsi.o)
                                                  /usr/lib/gcc/avr/10.2.0/../../../../avr/lib/avr5/libm.a(addsf3x.o)
__fuse                                            obj/Release/fuse.o
__gesf2                                           /usr/lib/gcc/avr/10.2.0/../../../../avr/lib/avr5/libm.a(gesf2.o)
                                                  obj/Release/configMode.o
                                                  obj/Release/autoMode.o
__gtsf2                                           /usr/lib/gcc/avr/10.2.0/../../../../avr/lib/avr5/libm.a(gesf2.o)
                                                  obj/Release/pulsonic.o
                                                  obj/Release/nozzle.o
                                                  obj/Release/autoMode.o
__heap_end                                        /usr/lib/gcc/avr/10.2.0/../../../../avr/lib/avr5/crtatmega32.o
__init                                            /usr/lib/gcc/avr/10.2.0/../../../../avr/lib/avr5/crtatmega32.o
__itoa_ncheck                                     /usr/lib/gcc/avr/10.2.0/../../../../avr/lib/avr5/libc.a(itoa_ncheck.o)
                                                  obj/Release/display.o
__lesf2                                           /usr/lib/gcc/avr/10.2.0/../../../../avr/lib/avr5/libm.a(cmpsf2.o)
                                                  obj/Release/display.o
__ltsf2                                           /usr/lib/gcc/avr/10.2.0/../../../../avr/lib/avr5/libm.a(cmpsf2.o)
                                                  obj/Release/pulsonic.o
                                                  obj/Release/display.o
                                                  obj/Release/configMode.o
__mulsf3                                          /usr/lib/gcc/avr/10.2.0/../../../../avr/lib/avr5/libm.a(mulsf3.o)
                                                  obj/Release/display.o
                                                  obj/Release/autoMode.o
__mulsf3_pse                                      /usr/lib/gcc/avr/10.2.0/../../../../avr/lib/avr5/libm.a(mulsf3x.o)
__mulsf3x                                         /usr/lib/gcc/avr/10.2.0/../../../../avr/lib/avr5/libm.a(mulsf3x.o)
                                                  /usr/lib/gcc/avr/10.2.0/../../../../avr/lib/avr5/libm.a(mulsf3.o)
__nesf2                                           /usr/lib/gcc/avr/10.2.0/../../../../avr/lib/avr5/libm.a(cmpsf2.o)
__stack                                           /usr/lib/gcc/avr/10.2.0/../../../../avr/lib/avr5/crtatmega32.o
__subsf3                                          /usr/lib/gcc/avr/10.2.0/../../../../avr/lib/avr5/libm.a(addsf3.o)
                                                  obj/Release/display.o
                                                  obj/Release/configMode.o
                                                  obj/Release/autoMode.o
__udivmodhi4                                      /usr/lib/gcc/avr/10.2.0/avr5/libgcc.a(_udivmodhi4.o)
                                                  /usr/lib/gcc/avr/10.2.0/avr5/libgcc.a(_divmodhi4.o)
__utoa_common                                     /usr/lib/gcc/avr/10.2.0/../../../../avr/lib/avr5/libc.a(utoa_ncheck.o)
                                                  /usr/lib/gcc/avr/10.2.0/../../../../avr/lib/avr5/libc.a(itoa_ncheck.o)
__utoa_ncheck                                     /usr/lib/gcc/avr/10.2.0/../../../../avr/lib/avr5/libc.a(utoa_ncheck.o)
__vector_1                                        /usr/lib/gcc/avr/10.2.0/../../../../avr/lib/avr5/crtatmega32.o
__vector_10                                       /usr/lib/gcc/avr/10.2.0/../../../../avr/lib/avr5/crtatmega32.o
__vector_11                                       /usr/lib/gcc/avr/10.2.0/../../../../avr/lib/avr5/crtatmega32.o
__vector_12                                       /usr/lib/gcc/avr/10.2.0/../../../../avr/lib/avr5/crtatmega32.o
__vector_13                                       /usr/lib/gcc/avr/10.2.0/../../../../avr/lib/avr5/crtatmega32.o
__vector_14                                       /usr/lib/gcc/avr/10.2.0/../../../../avr/lib/avr5/crtatmega32.o
__vector_15                                       /usr/lib/gcc/avr/10.2.0/../../../../avr/lib/avr5/crtatmega32.o
__vector_16                                       /usr/lib/gcc/avr/10.2.0/../../../../avr/lib/avr5/crtatmega32.o
__vector_17                                       /usr/lib/gcc/avr/10.2.0/../../../../avr/lib/avr5/crtatmega32.o
__vector_18                                       /usr/lib/gcc/avr/10.2.0/../../../../avr/lib/avr5/crtatmega32.o
__vector_19                                       /usr/lib/gcc/avr/10.2.0/../../../../avr/lib/avr5/crtatmega32.o
__vector_2                                        /usr/lib/gcc/avr/10.2.0/../../../../avr/lib/avr5/crtatmega32.o
__vector_20                                       /usr/lib/gcc/avr/10.2.0/../../../../avr/lib/avr5/crtatmega32.o
__vector_3                                        /usr/lib/gcc/avr/10.2.0/../../../../avr/lib/avr5/crtatmega32.o
__vector_4                                        /usr/lib/gcc/avr/10.2.0/../../../../avr/lib/avr5/crtatmega32.o
__vector_5                                        /usr/lib/gcc/avr/10.2.0/../../../../avr/lib/avr5/crtatmega32.o
__vector_6                                        /usr/lib/gcc/avr/10.2.0/../../../../avr/lib/avr5/crtatmega32.o
__vector_7                                        /usr/lib/gcc/avr/10.2.0/../../../../avr/lib/avr5/crtatmega32.o
__vector_8                                        /usr/lib/gcc/avr/10.2.0/../../../../avr/lib/avr5/crtatmega32.o
__vector_9                                        obj/Release/main.o
                                                  /usr/lib/gcc/avr/10.2.0/../../../../avr/lib/avr5/crtatmega32.o
__vector_default                                  /usr/lib/gcc/avr/10.2.0/../../../../avr/lib/avr5/crtatmega32.o
__vectors                                         /usr/lib/gcc/avr/10.2.0/../../../../avr/lib/avr5/crtatmega32.o
_div                                              /usr/lib/gcc/avr/10.2.0/avr5/libgcc.a(_divmodhi4.o)
_exit                                             /usr/lib/gcc/avr/10.2.0/avr5/libgcc.a(_exit.o)
autoMode1_job                                     obj/Release/autoMode.o
                                                  obj/Release/main.o
autoMode_cmd                                      obj/Release/autoMode.o
                                                  obj/Release/main.o
autoMode_disp7s_writeSumTotal                     obj/Release/autoMode.o
                                                  obj/Release/main.o
autoMode_setup                                    obj/Release/autoMode.o
check_oilLevel_data                               obj/Release/main.o
chek_homeSensor_data                              obj/Release/main.o
configMode_init                                   obj/Release/configMode.o
                                                  obj/Release/main.o
configMode_job                                    obj/Release/configMode.o
                                                  obj/Release/main.o
counterTicks_debug                                obj/Release/flushAtNozzle.o
disp7s_bk                                         obj/Release/main.o
disp7s_init                                       obj/Release/display.o
                                                  obj/Release/main.o
disp7s_job                                        obj/Release/display.o
                                                  obj/Release/main.o
disp7s_modeDisp_off                               obj/Release/display.o
                                                  obj/Release/flushAllMode1.o
disp7s_modeDisp_writeFloat                        obj/Release/display.o
                                                  obj/Release/main.o
disp7s_modeDisp_writeInt                          obj/Release/display.o
                                                  obj/Release/visMode.o
                                                  obj/Release/main.o
                                                  obj/Release/configMode.o
                                                  obj/Release/autoMode.o
disp7s_modeDisp_writeText_oil                     obj/Release/display.o
                                                  obj/Release/visMode.o
                                                  obj/Release/configMode.o
disp7s_mux                                        obj/Release/display.o
disp7s_off                                        obj/Release/display.o
disp7s_qtyDisp_writeFloat                         obj/Release/display.o
                                                  obj/Release/visMode.o
                                                  obj/Release/main.o
                                                  obj/Release/configMode.o
                                                  obj/Release/autoMode.o
disp7s_qtyDisp_writeInt                           obj/Release/display.o
                                                  obj/Release/visMode.o
                                                  obj/Release/configMode.o
disp7s_qtyDisp_writeText_20_3RAYAS                obj/Release/display.o
                                                  obj/Release/main.o
disp7s_qtyDisp_writeText_FFF                      obj/Release/display.o
disp7s_qtyDisp_writeText_FLU                      obj/Release/display.o
                                                  obj/Release/flushAtNozzle.o
                                                  obj/Release/flushAllMode1.o
disp7s_qtyDisp_writeText_NO_HOME_SENSOR           obj/Release/display.o
                                                  obj/Release/main.o
disp7s_qtyDisp_writeText_NO_OIL                   obj/Release/display.o
                                                  obj/Release/main.o
disp7s_qtyDisp_writeText_OFF                      obj/Release/display.o
                                                  obj/Release/visMode.o
                                                  obj/Release/configMode.o
disp7s_qtyDsp_off                                 obj/Release/display.o
disp7s_setBlink_qty                               obj/Release/display.o
                                                  obj/Release/main.o
                                                  obj/Release/configMode.o
disp7s_write_f                                    obj/Release/display.o
disp7s_write_i                                    obj/Release/display.o
disp_owner                                        obj/Release/main.o
                                                  obj/Release/visMode.o
                                                  obj/Release/configMode.o
                                                  obj/Release/autoMode.o
eeprom_read_block                                 /usr/lib/gcc/avr/10.2.0/../../../../avr/lib/avr5/libatmega32.a(eerd_block.o)
eeprom_read_blraw                                 /usr/lib/gcc/avr/10.2.0/../../../../avr/lib/avr5/libatmega32.a(eerd_block.o)
                                                  /usr/lib/gcc/avr/10.2.0/../../../../avr/lib/avr5/libatmega32.a(eerd_dword.o)
eeprom_read_byte                                  /usr/lib/gcc/avr/10.2.0/../../../../avr/lib/avr5/libatmega32.a(eerd_byte.o)
                                                  obj/Release/pulsonic.o
eeprom_read_dword                                 /usr/lib/gcc/avr/10.2.0/../../../../avr/lib/avr5/libatmega32.a(eerd_dword.o)
eeprom_read_float                                 /usr/lib/gcc/avr/10.2.0/../../../../avr/lib/avr5/libatmega32.a(eerd_dword.o)
                                                  obj/Release/pulsonic.o
eeprom_update_byte                                /usr/lib/gcc/avr/10.2.0/../../../../avr/lib/avr5/libatmega32.a(eeupd_byte.o)
                                                  /usr/lib/gcc/avr/10.2.0/../../../../avr/lib/avr5/libatmega32.a(eeupd_dword.o)
                                                  obj/Release/pulsonic.o
                                                  obj/Release/configMode.o
eeprom_update_dword                               /usr/lib/gcc/avr/10.2.0/../../../../avr/lib/avr5/libatmega32.a(eeupd_dword.o)
eeprom_update_float                               /usr/lib/gcc/avr/10.2.0/../../../../avr/lib/avr5/libatmega32.a(eeupd_dword.o)
                                                  obj/Release/pulsonic.o
                                                  obj/Release/configMode.o
eeprom_update_r18                                 /usr/lib/gcc/avr/10.2.0/../../../../avr/lib/avr5/libatmega32.a(eeupd_byte.o)
                                                  /usr/lib/gcc/avr/10.2.0/../../../../avr/lib/avr5/libatmega32.a(eeupd_dword.o)
error_job                                         obj/Release/main.o
exit                                              /usr/lib/gcc/avr/10.2.0/avr5/libgcc.a(_exit.o)
                                                  /usr/lib/gcc/avr/10.2.0/../../../../avr/lib/avr5/crtatmega32.o
flushAllMode_cmd                                  obj/Release/flushAllMode1.o
                                                  obj/Release/main.o
flushAllMode_job                                  obj/Release/flushAllMode1.o
                                                  obj/Release/main.o
flushAtNozzle_cmd                                 obj/Release/flushAtNozzle.o
                                                  obj/Release/configMode.o
flushAtNozzle_job                                 obj/Release/flushAtNozzle.o
                                                  obj/Release/main.o
flushAtNozzle_setNozzle                           obj/Release/flushAtNozzle.o
                                                  obj/Release/configMode.o
funcMach                                          obj/Release/main.o
group_x                                           obj/Release/ikb.o
homming                                           obj/Release/mpap.o
ikb_execfunct                                     obj/Release/ikb.o
ikb_flush                                         obj/Release/ikb.o
                                                  obj/Release/main.o
ikb_get_AtTimeExpired_BeforeOrAfter               obj/Release/ikb.o
                                                  obj/Release/main.o
                                                  obj/Release/configMode.o
ikb_init                                          obj/Release/ikb.o
                                                  obj/Release/main.o
ikb_job                                           obj/Release/ikb.o
                                                  obj/Release/main.o
ikb_key_is_ready2read                             obj/Release/ikb.o
                                                  obj/Release/main.o
                                                  obj/Release/configMode.o
ikb_key_was_read                                  obj/Release/ikb.o
                                                  obj/Release/main.o
                                                  obj/Release/configMode.o
ikb_setKeyProp                                    obj/Release/ikb.o
                                                  obj/Release/main.o
                                                  obj/Release/configMode.o
ikb_set_ready2read                                obj/Release/ikb.o
ikey_clear_all_flag                               obj/Release/ikb.o
ikey_is_all_hw_released                           obj/Release/ikb.o
ikey_is_all_process_finished                      obj/Release/ikb.o
ikey_parsing                                      obj/Release/ikb.o
ikey_scan                                         obj/Release/ikb.o
is_homeSensor                                     obj/Release/inputs.o
is_inductiveSensorRPM                             obj/Release/inputs.o
is_oilLevel                                       obj/Release/inputs.o
                                                  obj/Release/main.o
is_startSignal                                    obj/Release/inputs.o
                                                  obj/Release/main.o
is_unblocked_nozzle                               obj/Release/inputs.o
main                                              obj/Release/main.o
                                                  /usr/lib/gcc/avr/10.2.0/../../../../avr/lib/avr5/crtatmega32.o
memset                                            /usr/lib/gcc/avr/10.2.0/../../../../avr/lib/avr5/libc.a(memset.o)
                                                  obj/Release/display.o
motortest                                         obj/Release/mpap.o
mpap                                              obj/Release/mpap.o
                                                  obj/Release/nozzle.o
                                                  obj/Release/autoMode.o
mpap_do1step                                      obj/Release/mpap.o
mpap_doMovement                                   obj/Release/mpap.o
                                                  obj/Release/nozzle.o
                                                  obj/Release/autoMode.o
mpap_getMode                                      obj/Release/mpap.o
mpap_get_numSteps_current                         obj/Release/mpap.o
                                                  obj/Release/nozzle.o
                                                  obj/Release/flushAllMode1.o
mpap_homming_job                                  obj/Release/mpap.o
                                                  obj/Release/main.o
                                                  obj/Release/autoMode.o
mpap_homming_job_reset                            obj/Release/mpap.o
                                                  obj/Release/autoMode.o
mpap_homming_job_test_interrupt                   obj/Release/mpap.o
mpap_interrupt                                    obj/Release/mpap.o
mpap_isIdle                                       obj/Release/mpap.o
                                                  obj/Release/nozzle.o
                                                  obj/Release/flushAtNozzle.o
                                                  obj/Release/flushAllMode1.o
                                                  obj/Release/autoMode.o
mpap_job                                          obj/Release/mpap.o
                                                  obj/Release/main.o
mpap_movetoNozzle                                 obj/Release/mpap.o
                                                  obj/Release/nozzle.o
                                                  obj/Release/autoMode.o
mpap_setup_searchFirstPointHomeSensor             obj/Release/mpap.o
mpap_stall                                        obj/Release/mpap.o
                                                  obj/Release/main.o
                                                  obj/Release/flushAtNozzle.o
                                                  obj/Release/flushAllMode1.o
                                                  obj/Release/autoMode.o
mpap_step                                         obj/Release/mpap.o
mykb_layout0                                      obj/Release/main.o
nTicks_measured                                   obj/Release/autoMode.o
nozzle_getPosition                                obj/Release/nozzle.o
                                                  obj/Release/autoMode.o
nozzle_isEnabled                                  obj/Release/nozzle.o
                                                  obj/Release/pulsonic.o
                                                  obj/Release/flushAtNozzle.o
                                                  obj/Release/flushAllMode1.o
                                                  obj/Release/autoMode.o
nozzle_setPosition                                obj/Release/nozzle.o
                                                  obj/Release/flushAtNozzle.o
                                                  obj/Release/flushAllMode1.o
nozzle_setPosition_reset                          obj/Release/nozzle.o
                                                  obj/Release/flushAtNozzle.o
oilLevel_init                                     obj/Release/inputs.o
                                                  obj/Release/main.o
oilViscosityIdx_EEP                               obj/Release/myeeprom.o
                                                  obj/Release/pulsonic.o
                                                  obj/Release/configMode.o
propEmpty                                         obj/Release/ikb.o
                                                  obj/Release/main.o
                                                  obj/Release/configMode.o
pulsonic                                          obj/Release/pulsonic.o
                                                  obj/Release/visMode.o
                                                  obj/Release/pump.o
                                                  obj/Release/nozzle.o
                                                  obj/Release/mpap.o
                                                  obj/Release/main.o
                                                  obj/Release/display.o
                                                  obj/Release/configMode.o
                                                  obj/Release/autoMode.o
pulsonic_getNumNozzleAvailable                    obj/Release/pulsonic.o
                                                  obj/Release/configMode.o
pulsonic_getTotalSum_mlh                          obj/Release/pulsonic.o
                                                  obj/Release/main.o
                                                  obj/Release/autoMode.o
pulsonic_init                                     obj/Release/pulsonic.o
                                                  obj/Release/main.o
pump_getTick                                      obj/Release/pump.o
pump_isIdle                                       obj/Release/pump.o
                                                  obj/Release/flushAtNozzle.o
                                                  obj/Release/flushAllMode1.o
                                                  obj/Release/autoMode.o
pump_job                                          obj/Release/pump.o
                                                  obj/Release/main.o
pump_setTick                                      obj/Release/pump.o
                                                  obj/Release/flushAtNozzle.o
                                                  obj/Release/flushAllMode1.o
                                                  obj/Release/autoMode.o
pump_stop                                         obj/Release/pump.o
                                                  obj/Release/main.o
                                                  obj/Release/flushAtNozzle.o
                                                  obj/Release/flushAllMode1.o
                                                  obj/Release/autoMode.o
setdc                                             obj/Release/ustepping.o
                                                  obj/Release/main.o
smain                                             obj/Release/main.o
                                                  obj/Release/pump.o
                                                  obj/Release/inputs.o
                                                  obj/Release/autoMode.o
startSig_last                                     obj/Release/main.o
startSignal_init                                  obj/Release/inputs.o
                                                  obj/Release/main.o
strrev                                            /usr/lib/gcc/avr/10.2.0/../../../../avr/lib/avr5/libc.a(strrev.o)
                                                  /usr/lib/gcc/avr/10.2.0/../../../../avr/lib/avr5/libc.a(utoa_ncheck.o)
ustep_lockup                                      obj/Release/ustepping.o
visMode                                           obj/Release/visMode.o
                                                  obj/Release/main.o
visMode_job                                       obj/Release/visMode.o
                                                  obj/Release/main.o
